Certificate:
    Data:
        Version: 3 (0x2)
        Serial Number: 4097 (0x1001)
    Signature Algorithm: sha1WithRSAEncryption
        Issuer: C=FR, ST=IDF, L=Paris, O=Fake CA for Test, CN=NodeOPCUA
        Validity
            Not Before: Jan 26 15:16:47 2016 GMT
            Not After : Jan 25 15:16:47 2017 GMT
        Subject: O=NodeOPCUA, CN=NodeOPCUA
        Subject Public Key Info:
            Public Key Algorithm: rsaEncryption
                Public-Key: (2048 bit)
                Modulus:
                    00:b9:94:20:dc:b1:dc:3c:a7:49:5b:23:03:33:9d:
                    6a:4b:3e:7b:29:43:d7:80:65:22:41:91:57:d3:9a:
                    6b:12:00:04:a8:6d:3d:7c:97:d1:ae:98:e4:79:0b:
                    58:c3:c9:16:48:bc:9e:ff:8c:a9:2a:79:30:75:d5:
                    e0:2b:da:d0:8e:21:37:d3:fb:2b:68:a7:18:9e:a4:
                    53:a4:f8:1b:cc:e6:d9:3b:f2:39:b4:ff:de:e3:9d:
                    4b:fa:0c:25:8b:56:ef:82:cb:1b:ca:e1:f0:15:64:
                    f1:82:bb:4c:0c:e7:87:78:3a:99:fd:94:1c:02:58:
                    f3:ea:fb:13:70:6b:46:06:96:df:98:2a:24:8d:c7:
                    33:eb:cf:7d:5f:79:57:a8:0f:61:4a:04:5c:43:bf:
                    58:b9:f9:89:7f:72:e3:09:d5:51:fb:03:03:71:df:
                    23:96:b6:0c:33:0a:fa:f3:30:cb:7b:80:09:b1:3d:
                    2e:0c:8a:d1:10:c6:88:34:b5:69:a1:74:4e:6f:8c:
                    c4:56:f6:32:ee:b1:fe:35:ca:4f:51:73:7d:91:6f:
                    37:f9:6c:fb:70:1c:0a:1c:14:fb:a7:36:93:20:7c:
                    f7:3d:16:76:de:17:c5:1d:4d:96:92:2c:b2:81:c7:
                    9f:fc:02:25:2d:df:5b:5c:29:1c:a0:f9:5d:1a:80:
                    72:85
                Exponent: 65537 (0x10001)
        X509v3 extensions:
            X509v3 Basic Constraints: critical
                CA:FALSE
            X509v3 Subject Key Identifier: 
                C7:B0:3F:CD:11:AA:38:65:FF:82:CA:6B:F8:42:AB:4D:54:63:3B:B0
            X509v3 Authority Key Identifier: 
                keyid:B0:10:C0:DD:FE:B9:27:D9:59:E0:8F:3B:5A:1E:C8:5A:05:3B:95:3E
                DirName:/C=FR/ST=IDF/L=Paris/O=Fake CA for Test/CN=NodeOPCUA
                serial:8A:4A:87:C1:08:B5:C5:54

            X509v3 Subject Alternative Name: 
                URI:urn:marko-HP:NodeOPCUA-Client, DNS:localhost, DNS:marko-HP
            Netscape Comment: 
                OpenSSL Generated Certificate
            X509v3 Key Usage: critical
                Digital Signature, Non Repudiation, Key Encipherment, Data Encipherment, Key Agreement, Certificate Sign
            X509v3 Extended Key Usage: critical
                TLS Web Server Authentication, TLS Web Client Authentication
    Signature Algorithm: sha1WithRSAEncryption
         08:34:c5:22:0f:92:09:b0:de:e5:8f:ae:4a:7d:1d:32:89:4a:
         7e:18:ad:a9:be:58:6b:1f:4f:1d:f0:08:5a:d2:7b:8c:90:17:
         1a:97:3c:37:57:b0:6b:a8:15:a8:5a:71:96:4d:14:85:88:16:
         79:d5:82:51:5b:7b:bf:f6:c5:31:c6:7e:9a:e2:b3:d4:4a:83:
         51:37:11:81:14:9f:d8:3c:cd:79:94:91:06:e7:1e:0c:95:59:
         9b:94:60:18:a0:dc:a3:28:cb:c1:ed:f5:c5:68:bb:c0:53:f1:
         ca:84:f2:e0:6f:5f:1b:8a:5b:31:20:90:1f:6c:d0:a2:49:10:
         32:68:a2:c3:be:cf:b4:e0:47:7c:ed:ad:94:c7:ed:ee:72:13:
         a1:83:f1:9a:48:b9:0e:9c:a5:08:87:cc:9c:f6:13:41:26:09:
         c2:52:a3:46:0a:80:b4:62:bb:78:b9:6f:f1:df:a5:5b:4e:5a:
         b9:95:e8:e3:93:7d:68:55:57:a0:c5:a6:73:57:e1:98:19:17:
         6a:b3:31:6a:b6:cc:e6:ba:73:bb:e2:94:a9:6f:f7:fb:09:1b:
         bc:74:a4:bb:15:24:e8:e8:a4:f3:59:1d:79:7a:02:d9:eb:19:
         34:fa:8e:36:78:79:a9:14:93:38:76:21:6f:b0:8c:9f:b5:3f:
         ed:71:10:50
-----BEGIN CERTIFICATE-----
MIIEXzCCA0egAwIBAgICEAEwDQYJKoZIhvcNAQEFBQAwWjELMAkGA1UEBhMCRlIx
DDAKBgNVBAgTA0lERjEOMAwGA1UEBxMFUGFyaXMxGTAXBgNVBAoTEEZha2UgQ0Eg
Zm9yIFRlc3QxEjAQBgNVBAMTCU5vZGVPUENVQTAeFw0xNjAxMjYxNTE2NDdaFw0x
NzAxMjUxNTE2NDdaMCgxEjAQBgNVBAoTCU5vZGVPUENVQTESMBAGA1UEAxMJTm9k
ZU9QQ1VBMIIBIjANBgkqhkiG9w0BAQEFAAOCAQ8AMIIBCgKCAQEAuZQg3LHcPKdJ
WyMDM51qSz57KUPXgGUiQZFX05prEgAEqG09fJfRrpjkeQtYw8kWSLye/4ypKnkw
ddXgK9rQjiE30/sraKcYnqRTpPgbzObZO/I5tP/e451L+gwli1bvgssbyuHwFWTx
grtMDOeHeDqZ/ZQcAljz6vsTcGtGBpbfmCokjccz6899X3lXqA9hSgRcQ79YufmJ
f3LjCdVR+wMDcd8jlrYMMwr68zDLe4AJsT0uDIrREMaINLVpoXROb4zEVvYy7rH+
NcpPUXN9kW83+Wz7cBwKHBT7pzaTIHz3PRZ23hfFHU2Wkiyygcef/AIlLd9bXCkc
oPldGoByhQIDAQABo4IBXzCCAVswDAYDVR0TAQH/BAIwADAdBgNVHQ4EFgQUx7A/
zRGqOGX/gspr+EKrTVRjO7AwgYwGA1UdIwSBhDCBgYAUsBDA3f65J9lZ4I87Wh7I
WgU7lT6hXqRcMFoxCzAJBgNVBAYTAkZSMQwwCgYDVQQIEwNJREYxDjAMBgNVBAcT
BVBhcmlzMRkwFwYDVQQKExBGYWtlIENBIGZvciBUZXN0MRIwEAYDVQQDEwlOb2Rl
T1BDVUGCCQCKSofBCLXFVDA9BgNVHREENjA0hh11cm46bWFya28tSFA6Tm9kZU9Q
Q1VBLUNsaWVudIIJbG9jYWxob3N0gghtYXJrby1IUDAsBglghkgBhvhCAQ0EHxYd
T3BlblNTTCBHZW5lcmF0ZWQgQ2VydGlmaWNhdGUwDgYDVR0PAQH/BAQDAgL8MCAG
A1UdJQEB/wQWMBQGCCsGAQUFBwMBBggrBgEFBQcDAjANBgkqhkiG9w0BAQUFAAOC
AQEACDTFIg+SCbDe5Y+uSn0dMolKfhitqb5Yax9PHfAIWtJ7jJAXGpc8N1ewa6gV
qFpxlk0UhYgWedWCUVt7v/bFMcZ+muKz1EqDUTcRgRSf2DzNeZSRBuceDJVZm5Rg
GKDcoyjLwe31xWi7wFPxyoTy4G9fG4pbMSCQH2zQokkQMmiiw77PtOBHfO2tlMft
7nIToYPxmki5DpylCIfMnPYTQSYJwlKjRgqAtGK7eLlv8d+lW05auZXo45N9aFVX
oMWmc1fhmBkXarMxarbM5rpzu+KUqW/3+wkbvHSkuxUk6Oik81kdeXoC2esZNPqO
Nnh5qRSTOHYhb7CMn7U/7XEQUA==
-----END CERTIFICATE-----
-----BEGIN CERTIFICATE-----
MIIEkjCCA3qgAwIBAgIJAIpKh8EItcVUMA0GCSqGSIb3DQEBCwUAMFoxCzAJBgNV
BAYTAkZSMQwwCgYDVQQIEwNJREYxDjAMBgNVBAcTBVBhcmlzMRkwFwYDVQQKExBG
YWtlIENBIGZvciBUZXN0MRIwEAYDVQQDEwlOb2RlT1BDVUEwHhcNMTYwMTI3MTUx
NjQ3WhcNMjYwMTI0MTUxNjQ3WjBaMQswCQYDVQQGEwJGUjEMMAoGA1UECBMDSURG
MQ4wDAYDVQQHEwVQYXJpczEZMBcGA1UEChMQRmFrZSBDQSBmb3IgVGVzdDESMBAG
A1UEAxMJTm9kZU9QQ1VBMIIBIjANBgkqhkiG9w0BAQEFAAOCAQ8AMIIBCgKCAQEA
0wJj9vLYsGigN5YDfsEOXe40nkXc+iQDQinbfw+T1ksAvpoq62hCNaK9n4Qg/owy
9RjZUxEH012UQlR/xCSGFG2gRiswmpAnKDVlERcH778Jw0MbM8qLRaH690UXTmr3
foyPVBxIPjrRy2f59VJPhzaizTQB8b4wTnC/fZ1lZ4FS60Tztcu56vnUIS5jFdHm
zmwXT+ABVaNrfKHx/AwZi7Gy+NgKwQij06cu5pYAPlhuXexNmWIZM3eN/x3WfShc
8pFMvHkShN4NEQLhDji1035hgh6mZ0X5LNxQiPPG9FRLb7erkPGWF2jmhD7k9Qz1
lojuJeTqStMGmA947KfMrwIDAQABo4IBWTCCAVUwHQYDVR0OBBYEFLAQwN3+uSfZ
WeCPO1oeyFoFO5U+MIGMBgNVHSMEgYQwgYGAFLAQwN3+uSfZWeCPO1oeyFoFO5U+
oV6kXDBaMQswCQYDVQQGEwJGUjEMMAoGA1UECBMDSURGMQ4wDAYDVQQHEwVQYXJp
czEZMBcGA1UEChMQRmFrZSBDQSBmb3IgVGVzdDESMBAGA1UEAxMJTm9kZU9QQ1VB
ggkAikqHwQi1xVQwDAYDVR0TBAUwAwEB/zAOBgNVHQ8BAf8EBAMCAQYwVwYJYIZI
AYb4QgENBEoWSENBIENlcnRpZmljYXRlIGdlbmVyYXRlZCBieSBOb2RlLU9QQ1VB
IENlcnRpZmljYXRlIHV0aWxpdHkgdXNpbmcgb3BlbnNzbDAuBgNVHR8EJzAlMCOg
IaAfhh1odHRwOi8vbG9jYWxob3N0Ojg5MDAvY3JsLnBlbTANBgkqhkiG9w0BAQsF
AAOCAQEArcxR6cffb9By6Z8XXBlCygDo9bAxJYEvQJqMlk9ndG8a3zQhnjac70cI
VNI/tbDRh5hzXhDcOQ72tKAkH+2QRQYsNEgX8NDLEApFRVrMmPLxWRyvLK+3oTI2
KvOnNMe8ISDS8r3oCjCXxxQNxxM84fcYdmAf2zaoUIKWojyHJLD8CCyDCuAbYnKL
bDhFB2hJzrROqThmJnJQIAWXuv5AoAEHA6HpddrDtFJb1c0I4AlptQNnFjOp1MIk
jjwXPKsLHxwXey9cU5gDYq1t8QIOnCX1UtMC8w7AfQYPPO/huzjEIYJG5HoEQsX/
UPuQAjLRYIhMRJd+YqGuz0BCVfbzrg==
-----END CERTIFICATE-----
