Certificate:
    Data:
        Version: 3 (0x2)
        Serial Number: 4099 (0x1003)
    Signature Algorithm: sha1WithRSAEncryption
        Issuer: O=NodeOPCUA, CN=NodeOPCUA
        Validity
            Not Before: Jan 26 15:16:47 2016 GMT
            Not After : Jan 25 15:16:47 2017 GMT
        Subject: O=NodeOPCUA, CN=NodeOPCUA
        Subject Public Key Info:
            Public Key Algorithm: rsaEncryption
                Public-Key: (2048 bit)
                Modulus:
                    00:b9:94:20:dc:b1:dc:3c:a7:49:5b:23:03:33:9d:
                    6a:4b:3e:7b:29:43:d7:80:65:22:41:91:57:d3:9a:
                    6b:12:00:04:a8:6d:3d:7c:97:d1:ae:98:e4:79:0b:
                    58:c3:c9:16:48:bc:9e:ff:8c:a9:2a:79:30:75:d5:
                    e0:2b:da:d0:8e:21:37:d3:fb:2b:68:a7:18:9e:a4:
                    53:a4:f8:1b:cc:e6:d9:3b:f2:39:b4:ff:de:e3:9d:
                    4b:fa:0c:25:8b:56:ef:82:cb:1b:ca:e1:f0:15:64:
                    f1:82:bb:4c:0c:e7:87:78:3a:99:fd:94:1c:02:58:
                    f3:ea:fb:13:70:6b:46:06:96:df:98:2a:24:8d:c7:
                    33:eb:cf:7d:5f:79:57:a8:0f:61:4a:04:5c:43:bf:
                    58:b9:f9:89:7f:72:e3:09:d5:51:fb:03:03:71:df:
                    23:96:b6:0c:33:0a:fa:f3:30:cb:7b:80:09:b1:3d:
                    2e:0c:8a:d1:10:c6:88:34:b5:69:a1:74:4e:6f:8c:
                    c4:56:f6:32:ee:b1:fe:35:ca:4f:51:73:7d:91:6f:
                    37:f9:6c:fb:70:1c:0a:1c:14:fb:a7:36:93:20:7c:
                    f7:3d:16:76:de:17:c5:1d:4d:96:92:2c:b2:81:c7:
                    9f:fc:02:25:2d:df:5b:5c:29:1c:a0:f9:5d:1a:80:
                    72:85
                Exponent: 65537 (0x10001)
        X509v3 extensions:
            X509v3 Basic Constraints: critical
                CA:FALSE
            X509v3 Subject Key Identifier: 
                C7:B0:3F:CD:11:AA:38:65:FF:82:CA:6B:F8:42:AB:4D:54:63:3B:B0
            X509v3 Authority Key Identifier: 
                keyid:C7:B0:3F:CD:11:AA:38:65:FF:82:CA:6B:F8:42:AB:4D:54:63:3B:B0
                DirName:/O=NodeOPCUA/CN=NodeOPCUA
                serial:10:03

            X509v3 Subject Alternative Name: 
                URI:urn:marko-HP:NodeOPCUA-Client, DNS:localhost, DNS:marko-HP
            Netscape Comment: 
                OpenSSL Generated Certificate
            X509v3 Key Usage: critical
                Digital Signature, Non Repudiation, Key Encipherment, Data Encipherment, Key Agreement, Certificate Sign
            X509v3 Extended Key Usage: critical
                TLS Web Server Authentication, TLS Web Client Authentication
    Signature Algorithm: sha1WithRSAEncryption
         1e:db:a7:f3:22:a4:48:0f:50:ca:d5:cc:eb:a7:95:21:a3:be:
         40:3c:ee:06:dc:51:de:b8:b0:61:b6:a2:c3:7a:dd:9e:53:0f:
         0a:d6:ef:08:c9:fc:ee:d7:53:c4:76:97:be:2f:6c:9b:05:33:
         08:ab:ee:fe:07:87:67:2a:84:a9:1b:52:60:90:e9:ee:42:43:
         f4:42:e7:3e:3a:2e:ed:ad:56:c5:18:f9:50:9f:02:38:a4:29:
         40:69:31:85:f8:15:90:86:d6:d2:ea:5b:9e:60:60:82:1e:e3:
         2a:e1:e7:b4:a9:27:bc:d0:f4:2a:63:f7:b5:0c:93:25:93:3d:
         39:db:36:4d:d7:36:25:bd:f0:d2:4a:10:d9:c4:5b:74:2f:90:
         dd:45:b1:3d:e2:83:bc:e6:6b:7c:f6:b5:b6:84:8d:96:a3:be:
         a1:53:02:f3:1a:df:32:cd:db:70:4c:23:73:06:f1:5d:ee:a0:
         29:2d:4f:bd:7b:2e:1e:a1:89:0c:9c:dd:f6:af:14:94:29:a9:
         42:dc:3f:11:e2:1d:d5:4e:21:69:55:bf:8a:3b:52:9a:30:e0:
         35:56:32:02:b3:b4:d6:cb:68:a0:e1:de:d0:92:3a:ec:2d:f4:
         6d:01:5e:4a:67:d3:4c:fb:1f:3b:53:08:8c:e1:7a:33:c3:14:
         de:fe:6f:86
-----BEGIN CERTIFICATE-----
MIID8TCCAtmgAwIBAgICEAMwDQYJKoZIhvcNAQEFBQAwKDESMBAGA1UEChMJTm9k
ZU9QQ1VBMRIwEAYDVQQDEwlOb2RlT1BDVUEwHhcNMTYwMTI2MTUxNjQ3WhcNMTcw
MTI1MTUxNjQ3WjAoMRIwEAYDVQQKEwlOb2RlT1BDVUExEjAQBgNVBAMTCU5vZGVP
UENVQTCCASIwDQYJKoZIhvcNAQEBBQADggEPADCCAQoCggEBALmUINyx3DynSVsj
AzOdaks+eylD14BlIkGRV9OaaxIABKhtPXyX0a6Y5HkLWMPJFki8nv+MqSp5MHXV
4Cva0I4hN9P7K2inGJ6kU6T4G8zm2TvyObT/3uOdS/oMJYtW74LLG8rh8BVk8YK7
TAznh3g6mf2UHAJY8+r7E3BrRgaW35gqJI3HM+vPfV95V6gPYUoEXEO/WLn5iX9y
4wnVUfsDA3HfI5a2DDMK+vMwy3uACbE9LgyK0RDGiDS1aaF0Tm+MxFb2Mu6x/jXK
T1FzfZFvN/ls+3AcChwU+6c2kyB89z0Wdt4XxR1NlpIssoHHn/wCJS3fW1wpHKD5
XRqAcoUCAwEAAaOCASMwggEfMAwGA1UdEwEB/wQCMAAwHQYDVR0OBBYEFMewP80R
qjhl/4LKa/hCq01UYzuwMFEGA1UdIwRKMEiAFMewP80Rqjhl/4LKa/hCq01UYzuw
oSykKjAoMRIwEAYDVQQKEwlOb2RlT1BDVUExEjAQBgNVBAMTCU5vZGVPUENVQYIC
EAMwPQYDVR0RBDYwNIYddXJuOm1hcmtvLUhQOk5vZGVPUENVQS1DbGllbnSCCWxv
Y2FsaG9zdIIIbWFya28tSFAwLAYJYIZIAYb4QgENBB8WHU9wZW5TU0wgR2VuZXJh
dGVkIENlcnRpZmljYXRlMA4GA1UdDwEB/wQEAwIC/DAgBgNVHSUBAf8EFjAUBggr
BgEFBQcDAQYIKwYBBQUHAwIwDQYJKoZIhvcNAQEFBQADggEBAB7bp/MipEgPUMrV
zOunlSGjvkA87gbcUd64sGG2osN63Z5TDwrW7wjJ/O7XU8R2l74vbJsFMwir7v4H
h2cqhKkbUmCQ6e5CQ/RC5z46Lu2tVsUY+VCfAjikKUBpMYX4FZCG1tLqW55gYIIe
4yrh57SpJ7zQ9Cpj97UMkyWTPTnbNk3XNiW98NJKENnEW3QvkN1FsT3ig7zma3z2
tbaEjZajvqFTAvMa3zLN23BMI3MG8V3uoCktT717Lh6hiQyc3favFJQpqULcPxHi
HdVOIWlVv4o7Upow4DVWMgKztNbLaKDh3tCSOuwt9G0BXkpn00z7HztTCIzhejPD
FN7+b4Y=
-----END CERTIFICATE-----
