Certificate:
    Data:
        Version: 3 (0x2)
        Serial Number: 4100 (0x1004)
    Signature Algorithm: sha1WithRSAEncryption
        Issuer: C=FR, ST=IDF, L=Paris, O=Fake CA for Test, CN=NodeOPCUA
        Validity
            Not Before: Jan 26 15:16:47 2016 GMT
            Not After : Jan 25 15:16:47 2017 GMT
        Subject: O=NodeOPCUA, CN=NodeOPCUA
        Subject Public Key Info:
            Public Key Algorithm: rsaEncryption
                Public-Key: (1024 bit)
                Modulus:
                    00:c5:1e:ef:0d:62:ac:37:9e:45:bf:6d:56:a4:66:
                    f4:b5:96:64:b8:65:61:ae:92:b3:99:bb:d5:eb:c7:
                    86:92:d4:f8:ce:5f:90:51:c7:e3:89:43:db:a8:24:
                    e4:cb:52:9a:65:cd:ed:49:9c:62:2c:63:5c:52:49:
                    96:96:41:59:fe:eb:1d:e5:bf:49:80:31:1e:55:c0:
                    fd:4b:99:0c:bb:92:e9:39:c4:f1:93:36:b7:e1:4e:
                    94:31:9d:cd:4a:be:fa:ae:86:84:91:b8:0e:30:f6:
                    7b:54:e4:84:76:ac:0e:6e:73:e8:0e:a0:52:6c:2b:
                    5e:f9:df:e4:58:77:d3:f3:e7
                Exponent: 65537 (0x10001)
        X509v3 extensions:
            X509v3 Basic Constraints: critical
                CA:FALSE
            X509v3 Subject Key Identifier: 
                31:87:C3:25:8A:A2:AA:8B:8B:BA:A2:53:1D:5C:FF:CD:ED:55:C7:D5
            X509v3 Authority Key Identifier: 
                keyid:B0:10:C0:DD:FE:B9:27:D9:59:E0:8F:3B:5A:1E:C8:5A:05:3B:95:3E
                DirName:/C=FR/ST=IDF/L=Paris/O=Fake CA for Test/CN=NodeOPCUA
                serial:8A:4A:87:C1:08:B5:C5:54

            X509v3 Subject Alternative Name: 
                URI:urn:marko-HP:NodeOPCUA-Server, DNS:localhost, DNS:marko-HP
            Netscape Comment: 
                OpenSSL Generated Certificate
            X509v3 Key Usage: critical
                Digital Signature, Non Repudiation, Key Encipherment, Data Encipherment, Key Agreement, Certificate Sign
            X509v3 Extended Key Usage: critical
                TLS Web Server Authentication, TLS Web Client Authentication
    Signature Algorithm: sha1WithRSAEncryption
         9b:db:9c:b5:3b:c1:d9:a8:4b:36:43:35:bd:c2:07:b7:15:b5:
         05:ca:49:0a:93:f2:18:ee:d7:b8:20:ea:70:a1:22:14:a2:2d:
         14:77:94:f0:86:5b:9c:27:4f:ba:1f:02:ea:73:5e:00:2c:d2:
         27:a2:2d:c3:3a:ba:42:b5:73:3c:ff:2e:3e:ef:54:12:47:34:
         b7:bb:82:1f:31:73:bc:4a:97:21:8d:3e:f7:c3:8e:b9:cf:9b:
         da:27:76:36:c4:ce:71:b0:a9:d9:bf:9f:65:d4:73:4b:47:7a:
         f7:0d:5b:d4:4c:c0:d7:76:76:a3:8a:74:bc:b7:93:d9:3c:ff:
         a9:66:b2:68:b1:ac:05:81:1f:05:82:88:47:01:5f:86:3f:00:
         93:93:86:a8:fe:73:f8:6e:0e:54:7b:48:c4:83:51:39:bc:6e:
         56:6e:93:3d:d2:8c:65:bf:45:de:25:ac:e5:af:4f:da:41:b0:
         49:4a:c0:ef:67:f8:96:e0:d1:23:d6:36:0c:60:37:cb:3f:ab:
         ee:86:16:85:4a:c6:ae:49:60:dc:ff:dd:5f:42:01:56:a1:28:
         3c:d0:0f:57:31:7c:07:a4:e2:45:46:ef:3b:d4:d1:9a:d3:f2:
         42:e6:98:77:cc:72:09:28:cd:60:0e:48:32:25:8b:73:a3:3e:
         28:88:b7:eb
-----BEGIN CERTIFICATE-----
MIID2zCCAsOgAwIBAgICEAQwDQYJKoZIhvcNAQEFBQAwWjELMAkGA1UEBhMCRlIx
DDAKBgNVBAgTA0lERjEOMAwGA1UEBxMFUGFyaXMxGTAXBgNVBAoTEEZha2UgQ0Eg
Zm9yIFRlc3QxEjAQBgNVBAMTCU5vZGVPUENVQTAeFw0xNjAxMjYxNTE2NDdaFw0x
NzAxMjUxNTE2NDdaMCgxEjAQBgNVBAoTCU5vZGVPUENVQTESMBAGA1UEAxMJTm9k
ZU9QQ1VBMIGfMA0GCSqGSIb3DQEBAQUAA4GNADCBiQKBgQDFHu8NYqw3nkW/bVak
ZvS1lmS4ZWGukrOZu9Xrx4aS1PjOX5BRx+OJQ9uoJOTLUpplze1JnGIsY1xSSZaW
QVn+6x3lv0mAMR5VwP1LmQy7kuk5xPGTNrfhTpQxnc1KvvquhoSRuA4w9ntU5IR2
rA5uc+gOoFJsK1753+RYd9Pz5wIDAQABo4IBXzCCAVswDAYDVR0TAQH/BAIwADAd
BgNVHQ4EFgQUMYfDJYqiqouLuqJTHVz/ze1Vx9UwgYwGA1UdIwSBhDCBgYAUsBDA
3f65J9lZ4I87Wh7IWgU7lT6hXqRcMFoxCzAJBgNVBAYTAkZSMQwwCgYDVQQIEwNJ
REYxDjAMBgNVBAcTBVBhcmlzMRkwFwYDVQQKExBGYWtlIENBIGZvciBUZXN0MRIw
EAYDVQQDEwlOb2RlT1BDVUGCCQCKSofBCLXFVDA9BgNVHREENjA0hh11cm46bWFy
a28tSFA6Tm9kZU9QQ1VBLVNlcnZlcoIJbG9jYWxob3N0gghtYXJrby1IUDAsBglg
hkgBhvhCAQ0EHxYdT3BlblNTTCBHZW5lcmF0ZWQgQ2VydGlmaWNhdGUwDgYDVR0P
AQH/BAQDAgL8MCAGA1UdJQEB/wQWMBQGCCsGAQUFBwMBBggrBgEFBQcDAjANBgkq
hkiG9w0BAQUFAAOCAQEAm9uctTvB2ahLNkM1vcIHtxW1BcpJCpPyGO7XuCDqcKEi
FKItFHeU8IZbnCdPuh8C6nNeACzSJ6Itwzq6QrVzPP8uPu9UEkc0t7uCHzFzvEqX
IY0+98OOuc+b2id2NsTOcbCp2b+fZdRzS0d69w1b1EzA13Z2o4p0vLeT2Tz/qWay
aLGsBYEfBYKIRwFfhj8Ak5OGqP5z+G4OVHtIxINRObxuVm6TPdKMZb9F3iWs5a9P
2kGwSUrA72f4luDRI9Y2DGA3yz+r7oYWhUrGrklg3P/dX0IBVqEoPNAPVzF8B6Ti
RUbvO9TRmtPyQuaYd8xyCSjNYA5IMiWLc6M+KIi36w==
-----END CERTIFICATE-----
-----BEGIN CERTIFICATE-----
MIIEkjCCA3qgAwIBAgIJAIpKh8EItcVUMA0GCSqGSIb3DQEBCwUAMFoxCzAJBgNV
BAYTAkZSMQwwCgYDVQQIEwNJREYxDjAMBgNVBAcTBVBhcmlzMRkwFwYDVQQKExBG
YWtlIENBIGZvciBUZXN0MRIwEAYDVQQDEwlOb2RlT1BDVUEwHhcNMTYwMTI3MTUx
NjQ3WhcNMjYwMTI0MTUxNjQ3WjBaMQswCQYDVQQGEwJGUjEMMAoGA1UECBMDSURG
MQ4wDAYDVQQHEwVQYXJpczEZMBcGA1UEChMQRmFrZSBDQSBmb3IgVGVzdDESMBAG
A1UEAxMJTm9kZU9QQ1VBMIIBIjANBgkqhkiG9w0BAQEFAAOCAQ8AMIIBCgKCAQEA
0wJj9vLYsGigN5YDfsEOXe40nkXc+iQDQinbfw+T1ksAvpoq62hCNaK9n4Qg/owy
9RjZUxEH012UQlR/xCSGFG2gRiswmpAnKDVlERcH778Jw0MbM8qLRaH690UXTmr3
foyPVBxIPjrRy2f59VJPhzaizTQB8b4wTnC/fZ1lZ4FS60Tztcu56vnUIS5jFdHm
zmwXT+ABVaNrfKHx/AwZi7Gy+NgKwQij06cu5pYAPlhuXexNmWIZM3eN/x3WfShc
8pFMvHkShN4NEQLhDji1035hgh6mZ0X5LNxQiPPG9FRLb7erkPGWF2jmhD7k9Qz1
lojuJeTqStMGmA947KfMrwIDAQABo4IBWTCCAVUwHQYDVR0OBBYEFLAQwN3+uSfZ
WeCPO1oeyFoFO5U+MIGMBgNVHSMEgYQwgYGAFLAQwN3+uSfZWeCPO1oeyFoFO5U+
oV6kXDBaMQswCQYDVQQGEwJGUjEMMAoGA1UECBMDSURGMQ4wDAYDVQQHEwVQYXJp
czEZMBcGA1UEChMQRmFrZSBDQSBmb3IgVGVzdDESMBAGA1UEAxMJTm9kZU9QQ1VB
ggkAikqHwQi1xVQwDAYDVR0TBAUwAwEB/zAOBgNVHQ8BAf8EBAMCAQYwVwYJYIZI
AYb4QgENBEoWSENBIENlcnRpZmljYXRlIGdlbmVyYXRlZCBieSBOb2RlLU9QQ1VB
IENlcnRpZmljYXRlIHV0aWxpdHkgdXNpbmcgb3BlbnNzbDAuBgNVHR8EJzAlMCOg
IaAfhh1odHRwOi8vbG9jYWxob3N0Ojg5MDAvY3JsLnBlbTANBgkqhkiG9w0BAQsF
AAOCAQEArcxR6cffb9By6Z8XXBlCygDo9bAxJYEvQJqMlk9ndG8a3zQhnjac70cI
VNI/tbDRh5hzXhDcOQ72tKAkH+2QRQYsNEgX8NDLEApFRVrMmPLxWRyvLK+3oTI2
KvOnNMe8ISDS8r3oCjCXxxQNxxM84fcYdmAf2zaoUIKWojyHJLD8CCyDCuAbYnKL
bDhFB2hJzrROqThmJnJQIAWXuv5AoAEHA6HpddrDtFJb1c0I4AlptQNnFjOp1MIk
jjwXPKsLHxwXey9cU5gDYq1t8QIOnCX1UtMC8w7AfQYPPO/huzjEIYJG5HoEQsX/
UPuQAjLRYIhMRJd+YqGuz0BCVfbzrg==
-----END CERTIFICATE-----
