Certificate:
    Data:
        Version: 3 (0x2)
        Serial Number: 4102 (0x1006)
    Signature Algorithm: sha1WithRSAEncryption
        Issuer: O=NodeOPCUA, CN=NodeOPCUA
        Validity
            Not Before: Jan 26 15:16:47 2016 GMT
            Not After : Jan 25 15:16:47 2017 GMT
        Subject: O=NodeOPCUA, CN=NodeOPCUA
        Subject Public Key Info:
            Public Key Algorithm: rsaEncryption
                Public-Key: (1024 bit)
                Modulus:
                    00:c5:1e:ef:0d:62:ac:37:9e:45:bf:6d:56:a4:66:
                    f4:b5:96:64:b8:65:61:ae:92:b3:99:bb:d5:eb:c7:
                    86:92:d4:f8:ce:5f:90:51:c7:e3:89:43:db:a8:24:
                    e4:cb:52:9a:65:cd:ed:49:9c:62:2c:63:5c:52:49:
                    96:96:41:59:fe:eb:1d:e5:bf:49:80:31:1e:55:c0:
                    fd:4b:99:0c:bb:92:e9:39:c4:f1:93:36:b7:e1:4e:
                    94:31:9d:cd:4a:be:fa:ae:86:84:91:b8:0e:30:f6:
                    7b:54:e4:84:76:ac:0e:6e:73:e8:0e:a0:52:6c:2b:
                    5e:f9:df:e4:58:77:d3:f3:e7
                Exponent: 65537 (0x10001)
        X509v3 extensions:
            X509v3 Basic Constraints: critical
                CA:FALSE
            X509v3 Subject Key Identifier: 
                31:87:C3:25:8A:A2:AA:8B:8B:BA:A2:53:1D:5C:FF:CD:ED:55:C7:D5
            X509v3 Authority Key Identifier: 
                keyid:31:87:C3:25:8A:A2:AA:8B:8B:BA:A2:53:1D:5C:FF:CD:ED:55:C7:D5
                DirName:/O=NodeOPCUA/CN=NodeOPCUA
                serial:10:06

            X509v3 Subject Alternative Name: 
                URI:urn:marko-HP:NodeOPCUA-Server, DNS:localhost, DNS:marko-HP
            Netscape Comment: 
                OpenSSL Generated Certificate
            X509v3 Key Usage: critical
                Digital Signature, Non Repudiation, Key Encipherment, Data Encipherment, Key Agreement, Certificate Sign
            X509v3 Extended Key Usage: critical
                TLS Web Server Authentication, TLS Web Client Authentication
    Signature Algorithm: sha1WithRSAEncryption
         09:11:55:f2:ef:6a:27:77:f2:10:da:b2:9a:ae:b7:9e:c3:f4:
         27:17:e9:13:c1:32:55:18:ae:55:89:5d:38:ea:8d:3c:85:05:
         c1:d4:4d:54:e5:d0:ee:10:08:ac:ff:4c:a3:45:ea:e3:60:92:
         51:aa:63:2d:e4:02:8d:a8:aa:40:c8:95:7e:6b:24:f4:75:7e:
         1c:f7:75:25:77:9e:db:5e:df:1b:86:09:91:73:57:6c:93:5b:
         96:13:4c:c8:9e:f3:f1:ef:b6:67:e7:63:7d:b6:e7:da:ed:e6:
         1a:15:72:77:9e:75:ec:9a:34:f8:de:66:c0:29:e7:79:34:8e:
         48:4b
-----BEGIN CERTIFICATE-----
MIIC7DCCAlWgAwIBAgICEAYwDQYJKoZIhvcNAQEFBQAwKDESMBAGA1UEChMJTm9k
ZU9QQ1VBMRIwEAYDVQQDEwlOb2RlT1BDVUEwHhcNMTYwMTI2MTUxNjQ3WhcNMTcw
MTI1MTUxNjQ3WjAoMRIwEAYDVQQKEwlOb2RlT1BDVUExEjAQBgNVBAMTCU5vZGVP
UENVQTCBnzANBgkqhkiG9w0BAQEFAAOBjQAwgYkCgYEAxR7vDWKsN55Fv21WpGb0
tZZkuGVhrpKzmbvV68eGktT4zl+QUcfjiUPbqCTky1KaZc3tSZxiLGNcUkmWlkFZ
/usd5b9JgDEeVcD9S5kMu5LpOcTxkza34U6UMZ3NSr76roaEkbgOMPZ7VOSEdqwO
bnPoDqBSbCte+d/kWHfT8+cCAwEAAaOCASMwggEfMAwGA1UdEwEB/wQCMAAwHQYD
VR0OBBYEFDGHwyWKoqqLi7qiUx1c/83tVcfVMFEGA1UdIwRKMEiAFDGHwyWKoqqL
i7qiUx1c/83tVcfVoSykKjAoMRIwEAYDVQQKEwlOb2RlT1BDVUExEjAQBgNVBAMT
CU5vZGVPUENVQYICEAYwPQYDVR0RBDYwNIYddXJuOm1hcmtvLUhQOk5vZGVPUENV
QS1TZXJ2ZXKCCWxvY2FsaG9zdIIIbWFya28tSFAwLAYJYIZIAYb4QgENBB8WHU9w
ZW5TU0wgR2VuZXJhdGVkIENlcnRpZmljYXRlMA4GA1UdDwEB/wQEAwIC/DAgBgNV
HSUBAf8EFjAUBggrBgEFBQcDAQYIKwYBBQUHAwIwDQYJKoZIhvcNAQEFBQADgYEA
CRFV8u9qJ3fyENqymq63nsP0JxfpE8EyVRiuVYldOOqNPIUFwdRNVOXQ7hAIrP9M
o0Xq42CSUapjLeQCjaiqQMiVfmsk9HV+HPd1JXee217fG4YJkXNXbJNblhNMyJ7z
8e+2Z+djfbbn2u3mGhVyd5517Jo0+N5mwCnneTSOSEs=
-----END CERTIFICATE-----
