Certificate:
    Data:
        Version: 3 (0x2)
        Serial Number: 4103 (0x1007)
    Signature Algorithm: sha1WithRSAEncryption
        Issuer: O=NodeOPCUA, CN=NodeOPCUA
        Validity
            Not Before: Jan 26 15:16:47 2016 GMT
            Not After : Jan 25 15:16:47 2017 GMT
        Subject: O=NodeOPCUA, CN=NodeOPCUA
        Subject Public Key Info:
            Public Key Algorithm: rsaEncryption
                Public-Key: (2048 bit)
                Modulus:
                    00:bd:58:0a:e4:69:2e:85:c4:fa:2b:19:db:2d:6c:
                    23:8e:7b:e3:7e:7e:39:03:11:b1:92:5c:91:7b:ac:
                    c9:c8:a3:a0:74:7c:0a:48:46:81:e5:53:91:2c:91:
                    01:24:54:9a:94:6b:c6:ed:ac:77:32:b4:17:2f:49:
                    76:70:09:f5:99:b9:f0:7b:db:e1:8c:ce:f8:61:1a:
                    53:17:1f:40:8e:fb:50:bf:1f:8c:14:40:30:ec:3d:
                    18:ad:3c:dd:1a:27:b0:5b:9b:3c:3c:b7:bf:25:dc:
                    9a:05:c2:3c:8c:d2:03:f7:8d:58:b7:97:93:0d:2b:
                    aa:30:17:d3:c8:a1:46:37:e7:25:bb:80:63:d2:dd:
                    67:32:be:df:e3:57:d4:9b:94:63:5d:18:6b:6e:05:
                    ef:75:86:97:89:02:69:83:b9:fd:cd:a0:44:dc:30:
                    93:59:42:2f:50:da:29:4c:6f:e9:39:e4:23:19:c8:
                    8b:de:69:10:9c:7e:62:4e:0e:13:f0:43:28:dd:d0:
                    c7:05:04:56:38:a3:96:74:77:1c:89:20:ee:4f:68:
                    18:21:f4:8e:7e:4c:e6:c6:c5:8f:b5:e3:e0:92:9a:
                    84:1f:e5:cb:da:17:4f:25:fc:9f:97:1b:5a:65:09:
                    6c:88:01:4a:e7:22:ad:5e:3d:44:9a:ed:32:bd:cd:
                    e3:a7
                Exponent: 65537 (0x10001)
        X509v3 extensions:
            X509v3 Basic Constraints: critical
                CA:FALSE
            X509v3 Subject Key Identifier: 
                F1:83:C3:33:FE:B1:97:16:18:76:EB:B6:91:48:3D:47:37:FE:21:22
            X509v3 Authority Key Identifier: 
                keyid:F1:83:C3:33:FE:B1:97:16:18:76:EB:B6:91:48:3D:47:37:FE:21:22
                DirName:/O=NodeOPCUA/CN=NodeOPCUA
                serial:10:07

            X509v3 Subject Alternative Name: 
                URI:urn:marko-HP:NodeOPCUA-Server, DNS:localhost, DNS:marko-HP
            Netscape Comment: 
                OpenSSL Generated Certificate
            X509v3 Key Usage: critical
                Digital Signature, Non Repudiation, Key Encipherment, Data Encipherment, Key Agreement, Certificate Sign
            X509v3 Extended Key Usage: critical
                TLS Web Server Authentication, TLS Web Client Authentication
    Signature Algorithm: sha1WithRSAEncryption
         06:d7:9b:7a:64:00:e8:f3:22:df:87:b4:6c:d3:73:5a:78:13:
         1b:af:cc:c8:49:96:7c:45:35:6f:f1:8f:68:14:db:c6:e7:84:
         11:5f:90:d5:94:4a:a0:4c:67:e6:db:60:a9:59:46:45:9b:a3:
         30:5a:0e:0e:66:bb:0e:57:89:b7:72:74:0e:0a:1e:01:76:4c:
         84:ab:fc:53:2e:e0:08:90:d1:13:47:de:62:c2:dc:e6:92:3d:
         ee:3d:77:ba:d4:6a:71:02:35:19:40:e5:c8:b3:32:7b:5f:7a:
         e4:3c:4f:c5:c3:00:84:1e:3e:38:67:68:33:e6:69:8e:87:d5:
         e4:a8:88:b4:c8:cb:75:95:63:8c:db:c1:9c:6a:41:46:9c:23:
         e1:1f:6b:58:83:b4:8c:d4:de:ff:ad:40:73:51:20:f0:a2:93:
         ac:58:4c:25:0a:87:18:cc:70:09:4f:14:58:b2:32:13:52:42:
         a0:d1:a1:04:03:60:8a:a0:31:07:89:25:d2:7b:d1:8d:79:63:
         70:c6:94:8e:b3:79:75:38:56:cd:16:87:81:10:86:00:4f:a7:
         55:94:5d:c6:19:4d:5f:37:e5:c1:2d:e6:cb:25:bc:2b:3a:7f:
         e9:00:9b:33:59:49:9c:12:fb:58:01:83:c5:23:31:1f:39:2a:
         59:7c:13:f9
-----BEGIN CERTIFICATE-----
MIID8TCCAtmgAwIBAgICEAcwDQYJKoZIhvcNAQEFBQAwKDESMBAGA1UEChMJTm9k
ZU9QQ1VBMRIwEAYDVQQDEwlOb2RlT1BDVUEwHhcNMTYwMTI2MTUxNjQ3WhcNMTcw
MTI1MTUxNjQ3WjAoMRIwEAYDVQQKEwlOb2RlT1BDVUExEjAQBgNVBAMTCU5vZGVP
UENVQTCCASIwDQYJKoZIhvcNAQEBBQADggEPADCCAQoCggEBAL1YCuRpLoXE+isZ
2y1sI457435+OQMRsZJckXusycijoHR8CkhGgeVTkSyRASRUmpRrxu2sdzK0Fy9J
dnAJ9Zm58Hvb4YzO+GEaUxcfQI77UL8fjBRAMOw9GK083RonsFubPDy3vyXcmgXC
PIzSA/eNWLeXkw0rqjAX08ihRjfnJbuAY9LdZzK+3+NX1JuUY10Ya24F73WGl4kC
aYO5/c2gRNwwk1lCL1DaKUxv6TnkIxnIi95pEJx+Yk4OE/BDKN3QxwUEVjijlnR3
HIkg7k9oGCH0jn5M5sbFj7Xj4JKahB/ly9oXTyX8n5cbWmUJbIgBSucirV49RJrt
Mr3N46cCAwEAAaOCASMwggEfMAwGA1UdEwEB/wQCMAAwHQYDVR0OBBYEFPGDwzP+
sZcWGHbrtpFIPUc3/iEiMFEGA1UdIwRKMEiAFPGDwzP+sZcWGHbrtpFIPUc3/iEi
oSykKjAoMRIwEAYDVQQKEwlOb2RlT1BDVUExEjAQBgNVBAMTCU5vZGVPUENVQYIC
EAcwPQYDVR0RBDYwNIYddXJuOm1hcmtvLUhQOk5vZGVPUENVQS1TZXJ2ZXKCCWxv
Y2FsaG9zdIIIbWFya28tSFAwLAYJYIZIAYb4QgENBB8WHU9wZW5TU0wgR2VuZXJh
dGVkIENlcnRpZmljYXRlMA4GA1UdDwEB/wQEAwIC/DAgBgNVHSUBAf8EFjAUBggr
BgEFBQcDAQYIKwYBBQUHAwIwDQYJKoZIhvcNAQEFBQADggEBAAbXm3pkAOjzIt+H
tGzTc1p4ExuvzMhJlnxFNW/xj2gU28bnhBFfkNWUSqBMZ+bbYKlZRkWbozBaDg5m
uw5XibdydA4KHgF2TISr/FMu4AiQ0RNH3mLC3OaSPe49d7rUanECNRlA5cizMntf
euQ8T8XDAIQePjhnaDPmaY6H1eSoiLTIy3WVY4zbwZxqQUacI+Efa1iDtIzU3v+t
QHNRIPCik6xYTCUKhxjMcAlPFFiyMhNSQqDRoQQDYIqgMQeJJdJ70Y15Y3DGlI6z
eXU4Vs0Wh4EQhgBPp1WUXcYZTV835cEt5sslvCs6f+kAmzNZSZwS+1gBg8UjMR85
Kll8E/k=
-----END CERTIFICATE-----
