Certificate:
    Data:
        Version: 3 (0x2)
        Serial Number: 4096 (0x1000)
    Signature Algorithm: sha1WithRSAEncryption
        Issuer: C=FR, ST=IDF, L=Paris, O=Fake CA for Test, CN=NodeOPCUA
        Validity
            Not Before: Jan 26 15:16:47 2016 GMT
            Not After : Jan 25 15:16:47 2017 GMT
        Subject: O=NodeOPCUA, CN=NodeOPCUA
        Subject Public Key Info:
            Public Key Algorithm: rsaEncryption
                Public-Key: (1024 bit)
                Modulus:
                    00:94:46:74:a6:ee:81:3d:05:43:d8:df:18:ed:84:
                    a5:96:58:9e:60:65:97:f2:39:e9:46:c9:cf:83:06:
                    b7:72:e6:33:5b:75:30:b9:da:16:0c:ff:dc:25:69:
                    86:30:d2:36:51:f3:c7:af:c3:55:3e:af:0f:ed:b7:
                    39:60:ea:96:58:36:3e:c6:cf:f0:7a:a6:f7:32:fc:
                    75:42:af:2e:2f:80:80:df:6b:8f:ec:1f:09:d1:38:
                    2f:0f:ad:64:6b:4c:53:c7:6d:ba:44:d4:72:e5:45:
                    99:41:18:82:e4:8c:a5:64:71:72:de:b8:69:f2:02:
                    83:6f:73:4b:ac:e2:c3:55:95
                Exponent: 65537 (0x10001)
        X509v3 extensions:
            X509v3 Basic Constraints: critical
                CA:FALSE
            X509v3 Subject Key Identifier: 
                88:8D:82:A4:EF:33:4C:D4:71:46:D0:61:53:9E:0F:79:D8:A0:C4:BE
            X509v3 Authority Key Identifier: 
                keyid:B0:10:C0:DD:FE:B9:27:D9:59:E0:8F:3B:5A:1E:C8:5A:05:3B:95:3E
                DirName:/C=FR/ST=IDF/L=Paris/O=Fake CA for Test/CN=NodeOPCUA
                serial:8A:4A:87:C1:08:B5:C5:54

            X509v3 Subject Alternative Name: 
                URI:urn:marko-HP:NodeOPCUA-Client, DNS:localhost, DNS:marko-HP
            Netscape Comment: 
                OpenSSL Generated Certificate
            X509v3 Key Usage: critical
                Digital Signature, Non Repudiation, Key Encipherment, Data Encipherment, Key Agreement, Certificate Sign
            X509v3 Extended Key Usage: critical
                TLS Web Server Authentication, TLS Web Client Authentication
    Signature Algorithm: sha1WithRSAEncryption
         61:bf:f9:50:cb:3d:b0:99:6c:b6:9b:a1:a8:ad:e5:42:22:d4:
         2d:a1:d9:b4:ed:1b:13:61:03:af:32:2a:3b:5b:62:1c:ac:8f:
         4d:ec:33:45:56:02:a9:11:fe:7d:76:ea:40:12:d0:cb:a7:ac:
         cb:34:1c:59:48:f4:98:59:96:1c:8f:73:13:71:86:27:79:63:
         45:82:27:32:68:e6:86:36:49:c6:6d:50:e9:05:cc:4c:4c:6f:
         87:e4:04:e5:32:db:88:03:9e:7c:53:53:61:9b:1f:43:73:7c:
         e2:5c:02:44:87:68:03:6c:58:ae:d4:3e:8c:31:bb:99:32:84:
         a9:a8:21:bf:c5:5f:db:89:46:81:67:76:10:dd:9a:4b:17:dd:
         36:1e:35:05:6b:e7:db:45:38:66:0f:3c:06:ac:0c:30:f5:2e:
         e0:6a:8e:16:7e:23:e4:5d:60:dc:6d:18:dc:09:f3:9c:31:79:
         db:88:70:c3:7d:dd:bb:85:47:09:c2:d5:8d:24:dd:4a:b5:5f:
         d5:65:da:c7:17:df:4e:05:8a:c3:d4:ca:84:ac:6f:26:4d:04:
         2f:b5:c5:f7:36:b8:b0:6f:7f:da:09:ac:26:63:a5:d0:58:88:
         21:bb:22:36:3e:d5:43:c6:31:dc:94:4e:46:66:db:86:ef:27:
         11:73:86:29
-----BEGIN CERTIFICATE-----
MIID2zCCAsOgAwIBAgICEAAwDQYJKoZIhvcNAQEFBQAwWjELMAkGA1UEBhMCRlIx
DDAKBgNVBAgTA0lERjEOMAwGA1UEBxMFUGFyaXMxGTAXBgNVBAoTEEZha2UgQ0Eg
Zm9yIFRlc3QxEjAQBgNVBAMTCU5vZGVPUENVQTAeFw0xNjAxMjYxNTE2NDdaFw0x
NzAxMjUxNTE2NDdaMCgxEjAQBgNVBAoTCU5vZGVPUENVQTESMBAGA1UEAxMJTm9k
ZU9QQ1VBMIGfMA0GCSqGSIb3DQEBAQUAA4GNADCBiQKBgQCURnSm7oE9BUPY3xjt
hKWWWJ5gZZfyOelGyc+DBrdy5jNbdTC52hYM/9wlaYYw0jZR88evw1U+rw/ttzlg
6pZYNj7Gz/B6pvcy/HVCry4vgIDfa4/sHwnROC8PrWRrTFPHbbpE1HLlRZlBGILk
jKVkcXLeuGnyAoNvc0us4sNVlQIDAQABo4IBXzCCAVswDAYDVR0TAQH/BAIwADAd
BgNVHQ4EFgQUiI2CpO8zTNRxRtBhU54PedigxL4wgYwGA1UdIwSBhDCBgYAUsBDA
3f65J9lZ4I87Wh7IWgU7lT6hXqRcMFoxCzAJBgNVBAYTAkZSMQwwCgYDVQQIEwNJ
REYxDjAMBgNVBAcTBVBhcmlzMRkwFwYDVQQKExBGYWtlIENBIGZvciBUZXN0MRIw
EAYDVQQDEwlOb2RlT1BDVUGCCQCKSofBCLXFVDA9BgNVHREENjA0hh11cm46bWFy
a28tSFA6Tm9kZU9QQ1VBLUNsaWVudIIJbG9jYWxob3N0gghtYXJrby1IUDAsBglg
hkgBhvhCAQ0EHxYdT3BlblNTTCBHZW5lcmF0ZWQgQ2VydGlmaWNhdGUwDgYDVR0P
AQH/BAQDAgL8MCAGA1UdJQEB/wQWMBQGCCsGAQUFBwMBBggrBgEFBQcDAjANBgkq
hkiG9w0BAQUFAAOCAQEAYb/5UMs9sJlstpuhqK3lQiLULaHZtO0bE2EDrzIqO1ti
HKyPTewzRVYCqRH+fXbqQBLQy6esyzQcWUj0mFmWHI9zE3GGJ3ljRYInMmjmhjZJ
xm1Q6QXMTExvh+QE5TLbiAOefFNTYZsfQ3N84lwCRIdoA2xYrtQ+jDG7mTKEqagh
v8Vf24lGgWd2EN2aSxfdNh41BWvn20U4Zg88BqwMMPUu4GqOFn4j5F1g3G0Y3Anz
nDF524hww33du4VHCcLVjSTdSrVf1WXaxxffTgWKw9TKhKxvJk0EL7XF9za4sG9/
2gmsJmOl0FiIIbsiNj7VQ8Yx3JRORmbbhu8nEXOGKQ==
-----END CERTIFICATE-----
