Certificate:
    Data:
        Version: 3 (0x2)
        Serial Number: 4098 (0x1002)
    Signature Algorithm: sha1WithRSAEncryption
        Issuer: O=NodeOPCUA, CN=NodeOPCUA
        Validity
            Not Before: Jan 26 15:16:47 2016 GMT
            Not After : Jan 25 15:16:47 2017 GMT
        Subject: O=NodeOPCUA, CN=NodeOPCUA
        Subject Public Key Info:
            Public Key Algorithm: rsaEncryption
                Public-Key: (1024 bit)
                Modulus:
                    00:94:46:74:a6:ee:81:3d:05:43:d8:df:18:ed:84:
                    a5:96:58:9e:60:65:97:f2:39:e9:46:c9:cf:83:06:
                    b7:72:e6:33:5b:75:30:b9:da:16:0c:ff:dc:25:69:
                    86:30:d2:36:51:f3:c7:af:c3:55:3e:af:0f:ed:b7:
                    39:60:ea:96:58:36:3e:c6:cf:f0:7a:a6:f7:32:fc:
                    75:42:af:2e:2f:80:80:df:6b:8f:ec:1f:09:d1:38:
                    2f:0f:ad:64:6b:4c:53:c7:6d:ba:44:d4:72:e5:45:
                    99:41:18:82:e4:8c:a5:64:71:72:de:b8:69:f2:02:
                    83:6f:73:4b:ac:e2:c3:55:95
                Exponent: 65537 (0x10001)
        X509v3 extensions:
            X509v3 Basic Constraints: critical
                CA:FALSE
            X509v3 Subject Key Identifier: 
                88:8D:82:A4:EF:33:4C:D4:71:46:D0:61:53:9E:0F:79:D8:A0:C4:BE
            X509v3 Authority Key Identifier: 
                keyid:88:8D:82:A4:EF:33:4C:D4:71:46:D0:61:53:9E:0F:79:D8:A0:C4:BE
                DirName:/O=NodeOPCUA/CN=NodeOPCUA
                serial:10:02

            X509v3 Subject Alternative Name: 
                URI:urn:marko-HP:NodeOPCUA-Client, DNS:localhost, DNS:marko-HP
            Netscape Comment: 
                OpenSSL Generated Certificate
            X509v3 Key Usage: critical
                Digital Signature, Non Repudiation, Key Encipherment, Data Encipherment, Key Agreement, Certificate Sign
            X509v3 Extended Key Usage: critical
                TLS Web Server Authentication, TLS Web Client Authentication
    Signature Algorithm: sha1WithRSAEncryption
         09:63:5f:f5:9a:20:3a:c2:88:6c:30:0d:3e:af:00:9c:58:4c:
         71:23:13:e8:df:e2:7f:a8:c9:3b:3f:8a:6c:ae:9f:bb:74:50:
         f4:6d:ae:ba:b5:d7:b0:16:64:22:c8:ab:00:db:21:6a:f3:62:
         bd:99:6c:c2:c8:d4:d8:67:23:fd:d3:7e:bd:6a:cf:2b:f1:0e:
         8b:c1:4c:f1:a8:36:2b:19:e0:c3:4d:1f:ad:8e:52:b5:98:f7:
         1c:18:8b:76:48:17:96:1b:fc:2d:42:ca:74:6f:d8:17:c3:74:
         54:04:15:ef:df:4f:11:c0:b8:05:f0:cd:4a:fd:4f:da:09:d3:
         af:8d
-----BEGIN CERTIFICATE-----
MIIC7DCCAlWgAwIBAgICEAIwDQYJKoZIhvcNAQEFBQAwKDESMBAGA1UEChMJTm9k
ZU9QQ1VBMRIwEAYDVQQDEwlOb2RlT1BDVUEwHhcNMTYwMTI2MTUxNjQ3WhcNMTcw
MTI1MTUxNjQ3WjAoMRIwEAYDVQQKEwlOb2RlT1BDVUExEjAQBgNVBAMTCU5vZGVP
UENVQTCBnzANBgkqhkiG9w0BAQEFAAOBjQAwgYkCgYEAlEZ0pu6BPQVD2N8Y7YSl
llieYGWX8jnpRsnPgwa3cuYzW3UwudoWDP/cJWmGMNI2UfPHr8NVPq8P7bc5YOqW
WDY+xs/weqb3Mvx1Qq8uL4CA32uP7B8J0TgvD61ka0xTx226RNRy5UWZQRiC5Iyl
ZHFy3rhp8gKDb3NLrOLDVZUCAwEAAaOCASMwggEfMAwGA1UdEwEB/wQCMAAwHQYD
VR0OBBYEFIiNgqTvM0zUcUbQYVOeD3nYoMS+MFEGA1UdIwRKMEiAFIiNgqTvM0zU
cUbQYVOeD3nYoMS+oSykKjAoMRIwEAYDVQQKEwlOb2RlT1BDVUExEjAQBgNVBAMT
CU5vZGVPUENVQYICEAIwPQYDVR0RBDYwNIYddXJuOm1hcmtvLUhQOk5vZGVPUENV
QS1DbGllbnSCCWxvY2FsaG9zdIIIbWFya28tSFAwLAYJYIZIAYb4QgENBB8WHU9w
ZW5TU0wgR2VuZXJhdGVkIENlcnRpZmljYXRlMA4GA1UdDwEB/wQEAwIC/DAgBgNV
HSUBAf8EFjAUBggrBgEFBQcDAQYIKwYBBQUHAwIwDQYJKoZIhvcNAQEFBQADgYEA
CWNf9ZogOsKIbDANPq8AnFhMcSMT6N/if6jJOz+KbK6fu3RQ9G2uurXXsBZkIsir
ANshavNivZlswsjU2Gcj/dN+vWrPK/EOi8FM8ag2Kxngw00frY5StZj3HBiLdkgX
lhv8LULKdG/YF8N0VAQV799PEcC4BfDNSv1P2gnTr40=
-----END CERTIFICATE-----
