Certificate:
    Data:
        Version: 3 (0x2)
        Serial Number: 4101 (0x1005)
    Signature Algorithm: sha1WithRSAEncryption
        Issuer: C=FR, ST=IDF, L=Paris, O=Fake CA for Test, CN=NodeOPCUA
        Validity
            Not Before: Jan 26 15:16:47 2016 GMT
            Not After : Jan 25 15:16:47 2017 GMT
        Subject: O=NodeOPCUA, CN=NodeOPCUA
        Subject Public Key Info:
            Public Key Algorithm: rsaEncryption
                Public-Key: (2048 bit)
                Modulus:
                    00:bd:58:0a:e4:69:2e:85:c4:fa:2b:19:db:2d:6c:
                    23:8e:7b:e3:7e:7e:39:03:11:b1:92:5c:91:7b:ac:
                    c9:c8:a3:a0:74:7c:0a:48:46:81:e5:53:91:2c:91:
                    01:24:54:9a:94:6b:c6:ed:ac:77:32:b4:17:2f:49:
                    76:70:09:f5:99:b9:f0:7b:db:e1:8c:ce:f8:61:1a:
                    53:17:1f:40:8e:fb:50:bf:1f:8c:14:40:30:ec:3d:
                    18:ad:3c:dd:1a:27:b0:5b:9b:3c:3c:b7:bf:25:dc:
                    9a:05:c2:3c:8c:d2:03:f7:8d:58:b7:97:93:0d:2b:
                    aa:30:17:d3:c8:a1:46:37:e7:25:bb:80:63:d2:dd:
                    67:32:be:df:e3:57:d4:9b:94:63:5d:18:6b:6e:05:
                    ef:75:86:97:89:02:69:83:b9:fd:cd:a0:44:dc:30:
                    93:59:42:2f:50:da:29:4c:6f:e9:39:e4:23:19:c8:
                    8b:de:69:10:9c:7e:62:4e:0e:13:f0:43:28:dd:d0:
                    c7:05:04:56:38:a3:96:74:77:1c:89:20:ee:4f:68:
                    18:21:f4:8e:7e:4c:e6:c6:c5:8f:b5:e3:e0:92:9a:
                    84:1f:e5:cb:da:17:4f:25:fc:9f:97:1b:5a:65:09:
                    6c:88:01:4a:e7:22:ad:5e:3d:44:9a:ed:32:bd:cd:
                    e3:a7
                Exponent: 65537 (0x10001)
        X509v3 extensions:
            X509v3 Basic Constraints: critical
                CA:FALSE
            X509v3 Subject Key Identifier: 
                F1:83:C3:33:FE:B1:97:16:18:76:EB:B6:91:48:3D:47:37:FE:21:22
            X509v3 Authority Key Identifier: 
                keyid:B0:10:C0:DD:FE:B9:27:D9:59:E0:8F:3B:5A:1E:C8:5A:05:3B:95:3E
                DirName:/C=FR/ST=IDF/L=Paris/O=Fake CA for Test/CN=NodeOPCUA
                serial:8A:4A:87:C1:08:B5:C5:54

            X509v3 Subject Alternative Name: 
                URI:urn:marko-HP:NodeOPCUA-Server, DNS:localhost, DNS:marko-HP
            Netscape Comment: 
                OpenSSL Generated Certificate
            X509v3 Key Usage: critical
                Digital Signature, Non Repudiation, Key Encipherment, Data Encipherment, Key Agreement, Certificate Sign
            X509v3 Extended Key Usage: critical
                TLS Web Server Authentication, TLS Web Client Authentication
    Signature Algorithm: sha1WithRSAEncryption
         d0:42:57:5f:c4:eb:51:6a:db:a9:85:e7:72:3b:dd:cd:fc:8f:
         78:8d:d7:61:c5:71:f8:85:c4:6b:32:1e:e7:f6:e6:94:6b:2a:
         53:0e:dc:53:3f:90:ee:19:81:ab:33:39:4b:b8:36:5c:ee:67:
         7b:52:f8:f9:37:64:41:d6:6c:49:78:26:f6:e6:2f:7a:af:6c:
         22:61:13:cf:5d:13:30:bc:c4:49:11:6c:5d:1d:8f:87:b6:27:
         86:cc:c8:7b:d9:76:c2:16:a4:e6:af:cb:a8:90:c8:29:f0:c3:
         ad:8f:bd:46:6d:59:64:c1:7b:71:a1:41:b2:d6:70:d5:48:a9:
         c2:b6:fe:79:b7:cb:f0:ad:21:48:f7:85:3b:0d:a3:44:33:1d:
         f7:2c:17:a6:d5:a7:06:c2:87:d0:eb:5b:a4:dd:a2:32:73:73:
         dc:d8:66:5a:0c:b9:7a:f2:d6:c9:04:dc:48:b6:03:e5:de:2d:
         fb:33:84:ba:c5:fe:94:1b:6e:b5:1c:66:1d:c1:94:e5:d4:89:
         67:b1:cb:11:94:ee:92:f9:bf:95:b4:5c:88:de:2a:2f:03:34:
         1a:4c:28:51:14:66:51:9a:79:36:12:43:67:64:ba:c0:50:64:
         ff:a8:aa:b7:84:c1:c4:43:d0:4d:ca:c8:6f:b7:3e:ec:f0:0f:
         a7:e4:c9:8e
-----BEGIN CERTIFICATE-----
MIIEXzCCA0egAwIBAgICEAUwDQYJKoZIhvcNAQEFBQAwWjELMAkGA1UEBhMCRlIx
DDAKBgNVBAgTA0lERjEOMAwGA1UEBxMFUGFyaXMxGTAXBgNVBAoTEEZha2UgQ0Eg
Zm9yIFRlc3QxEjAQBgNVBAMTCU5vZGVPUENVQTAeFw0xNjAxMjYxNTE2NDdaFw0x
NzAxMjUxNTE2NDdaMCgxEjAQBgNVBAoTCU5vZGVPUENVQTESMBAGA1UEAxMJTm9k
ZU9QQ1VBMIIBIjANBgkqhkiG9w0BAQEFAAOCAQ8AMIIBCgKCAQEAvVgK5GkuhcT6
KxnbLWwjjnvjfn45AxGxklyRe6zJyKOgdHwKSEaB5VORLJEBJFSalGvG7ax3MrQX
L0l2cAn1mbnwe9vhjM74YRpTFx9AjvtQvx+MFEAw7D0YrTzdGiewW5s8PLe/Jdya
BcI8jNID941Yt5eTDSuqMBfTyKFGN+clu4Bj0t1nMr7f41fUm5RjXRhrbgXvdYaX
iQJpg7n9zaBE3DCTWUIvUNopTG/pOeQjGciL3mkQnH5iTg4T8EMo3dDHBQRWOKOW
dHcciSDuT2gYIfSOfkzmxsWPtePgkpqEH+XL2hdPJfyflxtaZQlsiAFK5yKtXj1E
mu0yvc3jpwIDAQABo4IBXzCCAVswDAYDVR0TAQH/BAIwADAdBgNVHQ4EFgQU8YPD
M/6xlxYYduu2kUg9Rzf+ISIwgYwGA1UdIwSBhDCBgYAUsBDA3f65J9lZ4I87Wh7I
WgU7lT6hXqRcMFoxCzAJBgNVBAYTAkZSMQwwCgYDVQQIEwNJREYxDjAMBgNVBAcT
BVBhcmlzMRkwFwYDVQQKExBGYWtlIENBIGZvciBUZXN0MRIwEAYDVQQDEwlOb2Rl
T1BDVUGCCQCKSofBCLXFVDA9BgNVHREENjA0hh11cm46bWFya28tSFA6Tm9kZU9Q
Q1VBLVNlcnZlcoIJbG9jYWxob3N0gghtYXJrby1IUDAsBglghkgBhvhCAQ0EHxYd
T3BlblNTTCBHZW5lcmF0ZWQgQ2VydGlmaWNhdGUwDgYDVR0PAQH/BAQDAgL8MCAG
A1UdJQEB/wQWMBQGCCsGAQUFBwMBBggrBgEFBQcDAjANBgkqhkiG9w0BAQUFAAOC
AQEA0EJXX8TrUWrbqYXncjvdzfyPeI3XYcVx+IXEazIe5/bmlGsqUw7cUz+Q7hmB
qzM5S7g2XO5ne1L4+TdkQdZsSXgm9uYveq9sImETz10TMLzESRFsXR2Ph7YnhszI
e9l2whak5q/LqJDIKfDDrY+9Rm1ZZMF7caFBstZw1Uipwrb+ebfL8K0hSPeFOw2j
RDMd9ywXptWnBsKH0OtbpN2iMnNz3NhmWgy5evLWyQTcSLYD5d4t+zOEusX+lBtu
tRxmHcGU5dSJZ7HLEZTukvm/lbRciN4qLwM0GkwoURRmUZp5NhJDZ2S6wFBk/6iq
t4TBxEPQTcrIb7c+7PAPp+TJjg==
-----END CERTIFICATE-----
