Certificate:
    Data:
        Version: 3 (0x2)
        Serial Number: 4104 (0x1008)
    Signature Algorithm: sha1WithRSAEncryption
        Issuer: C=FR, ST=IDF, L=Paris, O=Fake CA for Test, CN=NodeOPCUA
        Validity
            Not Before: Jan 26 15:16:47 2016 GMT
            Not After : Jan 25 15:16:47 2017 GMT
        Subject: O=NodeOPCUA, CN=NodeOPCUA
        Subject Public Key Info:
            Public Key Algorithm: rsaEncryption
                Public-Key: (1024 bit)
                Modulus:
                    00:ac:ba:89:34:93:01:bc:67:6d:0b:ce:7d:ee:a5:
                    cc:89:84:f6:69:ba:3c:24:e0:d5:6a:12:44:c0:1e:
                    c1:7d:16:bf:ab:80:58:19:4f:8f:01:77:d2:f6:15:
                    59:21:f7:ea:0d:25:4e:d1:af:4d:95:97:3d:55:fb:
                    26:0d:c8:da:ac:c0:54:f9:60:4c:17:dd:da:89:f8:
                    aa:c1:d8:50:20:28:3b:70:64:2c:40:56:d8:ac:b2:
                    ac:58:86:52:20:d8:94:3c:0d:1d:6a:dd:bd:1f:dd:
                    fa:e1:10:53:18:e1:5c:d8:e5:ab:6f:73:1d:b9:8b:
                    55:b6:4d:cf:41:5f:3f:26:13
                Exponent: 65537 (0x10001)
        X509v3 extensions:
            X509v3 Basic Constraints: critical
                CA:FALSE
            X509v3 Subject Key Identifier: 
                EC:76:4C:65:2B:E2:CA:95:70:25:08:BC:58:A0:15:69:64:73:C9:15
            X509v3 Authority Key Identifier: 
                keyid:B0:10:C0:DD:FE:B9:27:D9:59:E0:8F:3B:5A:1E:C8:5A:05:3B:95:3E
                DirName:/C=FR/ST=IDF/L=Paris/O=Fake CA for Test/CN=NodeOPCUA
                serial:8A:4A:87:C1:08:B5:C5:54

            X509v3 Subject Alternative Name: 
                URI:urn:marko-HP:NodeOPCUA-DiscoveryServer, DNS:localhost, DNS:marko-HP
            Netscape Comment: 
                OpenSSL Generated Certificate
            X509v3 Key Usage: critical
                Digital Signature, Non Repudiation, Key Encipherment, Data Encipherment, Key Agreement, Certificate Sign
            X509v3 Extended Key Usage: critical
                TLS Web Server Authentication, TLS Web Client Authentication
    Signature Algorithm: sha1WithRSAEncryption
         c5:53:74:dc:93:bf:bf:ed:88:4b:0f:03:28:72:16:02:0b:b1:
         e8:94:05:c7:8e:89:27:90:38:1c:09:ba:81:c5:7e:68:29:7c:
         d2:b7:c4:9e:62:07:78:ca:0b:e9:83:e3:9c:c1:ef:d5:af:f7:
         ea:a3:63:31:63:f9:10:b6:08:bc:e4:0d:c9:79:1b:20:07:28:
         04:d2:b0:7b:2e:c4:eb:09:08:f3:2e:87:7d:2d:1c:2c:2f:5f:
         8a:f8:08:bb:b1:49:fa:1e:ac:b8:a9:89:bb:d9:77:8b:eb:af:
         51:67:f2:31:81:c0:96:70:ed:18:4a:af:c3:d0:3b:60:c6:ac:
         ef:2f:e9:5f:6e:21:33:83:15:e3:a7:97:b6:d8:e9:39:74:d8:
         95:28:a3:9a:d5:19:43:3f:65:9d:d2:79:11:82:e4:48:a0:a7:
         83:84:70:86:d4:3c:5e:45:66:0c:37:c4:99:1c:18:14:44:6d:
         ea:e2:70:ff:63:b4:ec:03:3f:d1:6d:4f:07:62:60:70:eb:f1:
         41:01:d2:54:3f:bf:ab:56:80:29:ae:83:48:6e:6d:de:a0:cc:
         79:d6:70:ed:03:af:00:44:e5:5e:a8:89:64:f5:2b:e6:ae:64:
         0b:9c:32:4f:ef:74:d8:fd:12:92:59:a1:bd:ae:e8:de:52:8d:
         94:fe:7f:aa
-----BEGIN CERTIFICATE-----
MIID5DCCAsygAwIBAgICEAgwDQYJKoZIhvcNAQEFBQAwWjELMAkGA1UEBhMCRlIx
DDAKBgNVBAgTA0lERjEOMAwGA1UEBxMFUGFyaXMxGTAXBgNVBAoTEEZha2UgQ0Eg
Zm9yIFRlc3QxEjAQBgNVBAMTCU5vZGVPUENVQTAeFw0xNjAxMjYxNTE2NDdaFw0x
NzAxMjUxNTE2NDdaMCgxEjAQBgNVBAoTCU5vZGVPUENVQTESMBAGA1UEAxMJTm9k
ZU9QQ1VBMIGfMA0GCSqGSIb3DQEBAQUAA4GNADCBiQKBgQCsuok0kwG8Z20Lzn3u
pcyJhPZpujwk4NVqEkTAHsF9Fr+rgFgZT48Bd9L2FVkh9+oNJU7Rr02Vlz1V+yYN
yNqswFT5YEwX3dqJ+KrB2FAgKDtwZCxAVtissqxYhlIg2JQ8DR1q3b0f3frhEFMY
4VzY5atvcx25i1W2Tc9BXz8mEwIDAQABo4IBaDCCAWQwDAYDVR0TAQH/BAIwADAd
BgNVHQ4EFgQU7HZMZSviypVwJQi8WKAVaWRzyRUwgYwGA1UdIwSBhDCBgYAUsBDA
3f65J9lZ4I87Wh7IWgU7lT6hXqRcMFoxCzAJBgNVBAYTAkZSMQwwCgYDVQQIEwNJ
REYxDjAMBgNVBAcTBVBhcmlzMRkwFwYDVQQKExBGYWtlIENBIGZvciBUZXN0MRIw
EAYDVQQDEwlOb2RlT1BDVUGCCQCKSofBCLXFVDBGBgNVHREEPzA9hiZ1cm46bWFy
a28tSFA6Tm9kZU9QQ1VBLURpc2NvdmVyeVNlcnZlcoIJbG9jYWxob3N0gghtYXJr
by1IUDAsBglghkgBhvhCAQ0EHxYdT3BlblNTTCBHZW5lcmF0ZWQgQ2VydGlmaWNh
dGUwDgYDVR0PAQH/BAQDAgL8MCAGA1UdJQEB/wQWMBQGCCsGAQUFBwMBBggrBgEF
BQcDAjANBgkqhkiG9w0BAQUFAAOCAQEAxVN03JO/v+2ISw8DKHIWAgux6JQFx46J
J5A4HAm6gcV+aCl80rfEnmIHeMoL6YPjnMHv1a/36qNjMWP5ELYIvOQNyXkbIAco
BNKwey7E6wkI8y6HfS0cLC9fivgIu7FJ+h6suKmJu9l3i+uvUWfyMYHAlnDtGEqv
w9A7YMas7y/pX24hM4MV46eXttjpOXTYlSijmtUZQz9lndJ5EYLkSKCng4RwhtQ8
XkVmDDfEmRwYFERt6uJw/2O07AM/0W1PB2JgcOvxQQHSVD+/q1aAKa6DSG5t3qDM
edZw7QOvAETlXqiJZPUr5q5kC5wyT+902P0Sklmhva7o3lKNlP5/qg==
-----END CERTIFICATE-----
