Certificate:
    Data:
        Version: 3 (0x2)
        Serial Number: 4105 (0x1009)
    Signature Algorithm: sha1WithRSAEncryption
        Issuer: C=FR, ST=IDF, L=Paris, O=Fake CA for Test, CN=NodeOPCUA
        Validity
            Not Before: Jan 26 15:16:47 2016 GMT
            Not After : Jan 25 15:16:47 2017 GMT
        Subject: O=NodeOPCUA, CN=NodeOPCUA
        Subject Public Key Info:
            Public Key Algorithm: rsaEncryption
                Public-Key: (2048 bit)
                Modulus:
                    00:d7:17:ba:48:ed:59:10:a6:28:8c:65:6c:11:a5:
                    2f:8c:17:0f:50:dd:10:29:94:09:d7:fa:9f:8f:16:
                    a8:4b:40:9f:2f:9a:56:2b:28:24:b9:50:47:58:dc:
                    c5:4c:46:11:f3:4e:66:50:49:bb:e9:b9:c7:80:ad:
                    05:26:6f:d4:92:61:eb:31:d2:85:82:b2:09:98:4b:
                    79:3c:03:ef:b5:fc:8d:99:07:fd:b6:6e:31:f6:57:
                    52:a8:79:90:6f:8e:17:5a:d2:eb:95:ee:3c:fb:b9:
                    94:dd:ee:48:d8:2c:12:0e:a4:49:7f:ec:0f:14:7a:
                    ce:d6:ce:87:49:59:80:50:eb:6b:b0:00:de:fd:a4:
                    eb:23:da:4f:3e:8a:a7:1f:f2:fb:6b:78:d6:0d:52:
                    eb:1b:be:8c:1b:e0:65:a0:e6:f1:11:2d:0a:23:eb:
                    15:bd:c0:57:83:64:be:b3:13:2c:af:c9:50:dd:ef:
                    89:3a:bf:df:17:97:83:a7:a0:a0:b1:1e:c7:4a:1f:
                    a5:b4:53:24:ce:f0:92:0b:54:a6:4f:04:49:9f:b0:
                    2a:32:56:cf:1a:86:9a:e8:15:dc:8c:30:7b:e6:86:
                    44:fa:8b:20:ce:7f:09:f7:19:6b:de:48:3e:83:74:
                    85:04:01:b7:25:36:e1:00:02:03:9f:b4:33:79:ca:
                    44:d1
                Exponent: 65537 (0x10001)
        X509v3 extensions:
            X509v3 Basic Constraints: critical
                CA:FALSE
            X509v3 Subject Key Identifier: 
                3B:40:7B:6E:D4:39:67:91:AF:C6:39:CF:B4:89:51:23:22:DC:8E:A1
            X509v3 Authority Key Identifier: 
                keyid:B0:10:C0:DD:FE:B9:27:D9:59:E0:8F:3B:5A:1E:C8:5A:05:3B:95:3E
                DirName:/C=FR/ST=IDF/L=Paris/O=Fake CA for Test/CN=NodeOPCUA
                serial:8A:4A:87:C1:08:B5:C5:54

            X509v3 Subject Alternative Name: 
                URI:urn:marko-HP:NodeOPCUA-DiscoveryServer, DNS:localhost, DNS:marko-HP
            Netscape Comment: 
                OpenSSL Generated Certificate
            X509v3 Key Usage: critical
                Digital Signature, Non Repudiation, Key Encipherment, Data Encipherment, Key Agreement, Certificate Sign
            X509v3 Extended Key Usage: critical
                TLS Web Server Authentication, TLS Web Client Authentication
    Signature Algorithm: sha1WithRSAEncryption
         28:c2:13:34:e3:ba:89:45:ce:97:2e:99:5a:bd:4d:58:d6:72:
         44:29:1f:4f:59:6e:45:74:20:98:cf:6d:22:16:96:c0:28:58:
         0d:15:d9:5b:af:83:20:66:1a:fd:d0:12:83:8d:31:54:ea:b0:
         8e:ef:56:0a:fb:5f:9c:4b:55:2b:d3:8b:e1:5c:0b:70:61:32:
         3e:44:35:d3:03:ea:00:af:4b:31:9f:cf:cd:ba:fb:00:93:dc:
         8e:49:78:0b:fc:34:68:87:d3:d4:80:67:95:4a:ef:d1:14:ac:
         39:58:60:65:1b:e2:a1:28:38:e3:d7:39:bf:c9:38:c5:a6:33:
         48:9e:bb:07:27:c9:ba:63:b5:b0:3f:25:ed:43:72:f8:f9:45:
         1f:fc:2b:0e:b4:44:70:f7:d9:70:db:33:55:0b:42:08:ea:29:
         6f:28:c6:86:a0:c3:21:9d:89:dd:32:14:16:4e:1a:f9:7b:d0:
         83:ec:57:8c:e9:a4:4a:88:a3:5e:62:ea:4f:00:77:31:2d:9e:
         e7:0f:bf:fb:fc:83:30:9d:f9:9e:c6:6a:bc:b2:bf:ea:28:c9:
         39:e3:67:cd:11:12:fb:d8:63:04:4e:5e:91:eb:9d:7c:3a:50:
         aa:63:70:03:d3:d3:28:b8:4e:d9:7a:dc:27:50:f3:73:9b:f8:
         1b:c7:9f:a3
-----BEGIN CERTIFICATE-----
MIIEaDCCA1CgAwIBAgICEAkwDQYJKoZIhvcNAQEFBQAwWjELMAkGA1UEBhMCRlIx
DDAKBgNVBAgTA0lERjEOMAwGA1UEBxMFUGFyaXMxGTAXBgNVBAoTEEZha2UgQ0Eg
Zm9yIFRlc3QxEjAQBgNVBAMTCU5vZGVPUENVQTAeFw0xNjAxMjYxNTE2NDdaFw0x
NzAxMjUxNTE2NDdaMCgxEjAQBgNVBAoTCU5vZGVPUENVQTESMBAGA1UEAxMJTm9k
ZU9QQ1VBMIIBIjANBgkqhkiG9w0BAQEFAAOCAQ8AMIIBCgKCAQEA1xe6SO1ZEKYo
jGVsEaUvjBcPUN0QKZQJ1/qfjxaoS0CfL5pWKygkuVBHWNzFTEYR805mUEm76bnH
gK0FJm/UkmHrMdKFgrIJmEt5PAPvtfyNmQf9tm4x9ldSqHmQb44XWtLrle48+7mU
3e5I2CwSDqRJf+wPFHrO1s6HSVmAUOtrsADe/aTrI9pPPoqnH/L7a3jWDVLrG76M
G+BloObxES0KI+sVvcBXg2S+sxMsr8lQ3e+JOr/fF5eDp6CgsR7HSh+ltFMkzvCS
C1SmTwRJn7AqMlbPGoaa6BXcjDB75oZE+osgzn8J9xlr3kg+g3SFBAG3JTbhAAID
n7QzecpE0QIDAQABo4IBaDCCAWQwDAYDVR0TAQH/BAIwADAdBgNVHQ4EFgQUO0B7
btQ5Z5GvxjnPtIlRIyLcjqEwgYwGA1UdIwSBhDCBgYAUsBDA3f65J9lZ4I87Wh7I
WgU7lT6hXqRcMFoxCzAJBgNVBAYTAkZSMQwwCgYDVQQIEwNJREYxDjAMBgNVBAcT
BVBhcmlzMRkwFwYDVQQKExBGYWtlIENBIGZvciBUZXN0MRIwEAYDVQQDEwlOb2Rl
T1BDVUGCCQCKSofBCLXFVDBGBgNVHREEPzA9hiZ1cm46bWFya28tSFA6Tm9kZU9Q
Q1VBLURpc2NvdmVyeVNlcnZlcoIJbG9jYWxob3N0gghtYXJrby1IUDAsBglghkgB
hvhCAQ0EHxYdT3BlblNTTCBHZW5lcmF0ZWQgQ2VydGlmaWNhdGUwDgYDVR0PAQH/
BAQDAgL8MCAGA1UdJQEB/wQWMBQGCCsGAQUFBwMBBggrBgEFBQcDAjANBgkqhkiG
9w0BAQUFAAOCAQEAKMITNOO6iUXOly6ZWr1NWNZyRCkfT1luRXQgmM9tIhaWwChY
DRXZW6+DIGYa/dASg40xVOqwju9WCvtfnEtVK9OL4VwLcGEyPkQ10wPqAK9LMZ/P
zbr7AJPcjkl4C/w0aIfT1IBnlUrv0RSsOVhgZRvioSg449c5v8k4xaYzSJ67ByfJ
umO1sD8l7UNy+PlFH/wrDrREcPfZcNszVQtCCOopbyjGhqDDIZ2J3TIUFk4a+XvQ
g+xXjOmkSoijXmLqTwB3MS2e5w+/+/yDMJ35nsZqvLK/6ijJOeNnzRES+9hjBE5e
keudfDpQqmNwA9PTKLhO2XrcJ1Dzc5v4G8efow==
-----END CERTIFICATE-----
