Certificate:
    Data:
        Version: 3 (0x2)
        Serial Number: 4106 (0x100a)
    Signature Algorithm: sha1WithRSAEncryption
        Issuer: O=NodeOPCUA, CN=NodeOPCUA
        Validity
            Not Before: Jan 26 15:16:47 2016 GMT
            Not After : Jan 25 15:16:47 2017 GMT
        Subject: O=NodeOPCUA, CN=NodeOPCUA
        Subject Public Key Info:
            Public Key Algorithm: rsaEncryption
                Public-Key: (1024 bit)
                Modulus:
                    00:ac:ba:89:34:93:01:bc:67:6d:0b:ce:7d:ee:a5:
                    cc:89:84:f6:69:ba:3c:24:e0:d5:6a:12:44:c0:1e:
                    c1:7d:16:bf:ab:80:58:19:4f:8f:01:77:d2:f6:15:
                    59:21:f7:ea:0d:25:4e:d1:af:4d:95:97:3d:55:fb:
                    26:0d:c8:da:ac:c0:54:f9:60:4c:17:dd:da:89:f8:
                    aa:c1:d8:50:20:28:3b:70:64:2c:40:56:d8:ac:b2:
                    ac:58:86:52:20:d8:94:3c:0d:1d:6a:dd:bd:1f:dd:
                    fa:e1:10:53:18:e1:5c:d8:e5:ab:6f:73:1d:b9:8b:
                    55:b6:4d:cf:41:5f:3f:26:13
                Exponent: 65537 (0x10001)
        X509v3 extensions:
            X509v3 Basic Constraints: critical
                CA:FALSE
            X509v3 Subject Key Identifier: 
                EC:76:4C:65:2B:E2:CA:95:70:25:08:BC:58:A0:15:69:64:73:C9:15
            X509v3 Authority Key Identifier: 
                keyid:EC:76:4C:65:2B:E2:CA:95:70:25:08:BC:58:A0:15:69:64:73:C9:15
                DirName:/O=NodeOPCUA/CN=NodeOPCUA
                serial:10:0A

            X509v3 Subject Alternative Name: 
                URI:urn:marko-HP:NodeOPCUA-DiscoveryServer, DNS:localhost, DNS:marko-HP
            Netscape Comment: 
                OpenSSL Generated Certificate
            X509v3 Key Usage: critical
                Digital Signature, Non Repudiation, Key Encipherment, Data Encipherment, Key Agreement, Certificate Sign
            X509v3 Extended Key Usage: critical
                TLS Web Server Authentication, TLS Web Client Authentication
    Signature Algorithm: sha1WithRSAEncryption
         85:dd:91:0c:93:3b:de:ef:83:e2:70:81:44:16:8f:27:94:aa:
         26:8f:b2:08:ea:fc:94:ef:54:74:f0:f8:92:48:a4:cf:35:37:
         c6:9d:6a:11:62:36:54:9e:40:7a:7d:b3:5c:74:eb:ed:49:a4:
         4b:d4:f9:0b:e3:6d:08:38:64:89:c2:c0:69:02:ca:17:b9:85:
         a0:b6:d8:fb:c7:87:f4:35:8a:91:53:50:c3:0d:b8:09:d5:ec:
         ef:c4:1f:20:d3:e8:d4:a4:da:68:98:83:63:7d:a4:04:98:7c:
         7d:6a:71:18:a2:44:04:f5:66:b5:11:c7:a0:53:e3:b8:a9:b8:
         82:fc
-----BEGIN CERTIFICATE-----
MIIC9TCCAl6gAwIBAgICEAowDQYJKoZIhvcNAQEFBQAwKDESMBAGA1UEChMJTm9k
ZU9QQ1VBMRIwEAYDVQQDEwlOb2RlT1BDVUEwHhcNMTYwMTI2MTUxNjQ3WhcNMTcw
MTI1MTUxNjQ3WjAoMRIwEAYDVQQKEwlOb2RlT1BDVUExEjAQBgNVBAMTCU5vZGVP
UENVQTCBnzANBgkqhkiG9w0BAQEFAAOBjQAwgYkCgYEArLqJNJMBvGdtC8597qXM
iYT2abo8JODVahJEwB7BfRa/q4BYGU+PAXfS9hVZIffqDSVO0a9NlZc9VfsmDcja
rMBU+WBMF93aifiqwdhQICg7cGQsQFbYrLKsWIZSINiUPA0dat29H9364RBTGOFc
2OWrb3MduYtVtk3PQV8/JhMCAwEAAaOCASwwggEoMAwGA1UdEwEB/wQCMAAwHQYD
VR0OBBYEFOx2TGUr4sqVcCUIvFigFWlkc8kVMFEGA1UdIwRKMEiAFOx2TGUr4sqV
cCUIvFigFWlkc8kVoSykKjAoMRIwEAYDVQQKEwlOb2RlT1BDVUExEjAQBgNVBAMT
CU5vZGVPUENVQYICEAowRgYDVR0RBD8wPYYmdXJuOm1hcmtvLUhQOk5vZGVPUENV
QS1EaXNjb3ZlcnlTZXJ2ZXKCCWxvY2FsaG9zdIIIbWFya28tSFAwLAYJYIZIAYb4
QgENBB8WHU9wZW5TU0wgR2VuZXJhdGVkIENlcnRpZmljYXRlMA4GA1UdDwEB/wQE
AwIC/DAgBgNVHSUBAf8EFjAUBggrBgEFBQcDAQYIKwYBBQUHAwIwDQYJKoZIhvcN
AQEFBQADgYEAhd2RDJM73u+D4nCBRBaPJ5SqJo+yCOr8lO9UdPD4kkikzzU3xp1q
EWI2VJ5Aen2zXHTr7UmkS9T5C+NtCDhkicLAaQLKF7mFoLbY+8eH9DWKkVNQww24
CdXs78QfINPo1KTaaJiDY32kBJh8fWpxGKJEBPVmtRHHoFPjuKm4gvw=
-----END CERTIFICATE-----
