Certificate:
    Data:
        Version: 3 (0x2)
        Serial Number: 4107 (0x100b)
    Signature Algorithm: sha1WithRSAEncryption
        Issuer: O=NodeOPCUA, CN=NodeOPCUA
        Validity
            Not Before: Jan 26 15:16:47 2016 GMT
            Not After : Jan 25 15:16:47 2017 GMT
        Subject: O=NodeOPCUA, CN=NodeOPCUA
        Subject Public Key Info:
            Public Key Algorithm: rsaEncryption
                Public-Key: (2048 bit)
                Modulus:
                    00:d7:17:ba:48:ed:59:10:a6:28:8c:65:6c:11:a5:
                    2f:8c:17:0f:50:dd:10:29:94:09:d7:fa:9f:8f:16:
                    a8:4b:40:9f:2f:9a:56:2b:28:24:b9:50:47:58:dc:
                    c5:4c:46:11:f3:4e:66:50:49:bb:e9:b9:c7:80:ad:
                    05:26:6f:d4:92:61:eb:31:d2:85:82:b2:09:98:4b:
                    79:3c:03:ef:b5:fc:8d:99:07:fd:b6:6e:31:f6:57:
                    52:a8:79:90:6f:8e:17:5a:d2:eb:95:ee:3c:fb:b9:
                    94:dd:ee:48:d8:2c:12:0e:a4:49:7f:ec:0f:14:7a:
                    ce:d6:ce:87:49:59:80:50:eb:6b:b0:00:de:fd:a4:
                    eb:23:da:4f:3e:8a:a7:1f:f2:fb:6b:78:d6:0d:52:
                    eb:1b:be:8c:1b:e0:65:a0:e6:f1:11:2d:0a:23:eb:
                    15:bd:c0:57:83:64:be:b3:13:2c:af:c9:50:dd:ef:
                    89:3a:bf:df:17:97:83:a7:a0:a0:b1:1e:c7:4a:1f:
                    a5:b4:53:24:ce:f0:92:0b:54:a6:4f:04:49:9f:b0:
                    2a:32:56:cf:1a:86:9a:e8:15:dc:8c:30:7b:e6:86:
                    44:fa:8b:20:ce:7f:09:f7:19:6b:de:48:3e:83:74:
                    85:04:01:b7:25:36:e1:00:02:03:9f:b4:33:79:ca:
                    44:d1
                Exponent: 65537 (0x10001)
        X509v3 extensions:
            X509v3 Basic Constraints: critical
                CA:FALSE
            X509v3 Subject Key Identifier: 
                3B:40:7B:6E:D4:39:67:91:AF:C6:39:CF:B4:89:51:23:22:DC:8E:A1
            X509v3 Authority Key Identifier: 
                keyid:3B:40:7B:6E:D4:39:67:91:AF:C6:39:CF:B4:89:51:23:22:DC:8E:A1
                DirName:/O=NodeOPCUA/CN=NodeOPCUA
                serial:10:0B

            X509v3 Subject Alternative Name: 
                URI:urn:marko-HP:NodeOPCUA-DiscoveryServer, DNS:localhost, DNS:marko-HP
            Netscape Comment: 
                OpenSSL Generated Certificate
            X509v3 Key Usage: critical
                Digital Signature, Non Repudiation, Key Encipherment, Data Encipherment, Key Agreement, Certificate Sign
            X509v3 Extended Key Usage: critical
                TLS Web Server Authentication, TLS Web Client Authentication
    Signature Algorithm: sha1WithRSAEncryption
         a9:ff:27:08:ab:1d:ea:d0:bc:e7:28:ea:ed:04:13:54:ee:b4:
         e7:55:d4:01:e2:8e:17:ab:0a:61:e6:f2:a5:d7:aa:b4:e7:c4:
         77:d1:21:39:7d:fc:f5:6d:8f:b4:b4:fb:fa:1b:ae:8c:43:4b:
         6b:00:4b:6b:80:3b:95:c0:b1:c8:e2:b5:06:10:1d:0d:7d:51:
         35:a0:76:2c:46:9f:72:cb:b0:b0:d5:35:17:d2:b9:ea:46:59:
         91:95:b8:ed:45:81:28:90:b0:b6:ca:03:1b:a7:73:cb:8c:c6:
         60:47:fc:c3:87:35:6d:f5:f3:83:8e:e0:03:d1:49:25:95:77:
         c8:20:f4:9e:1b:e4:15:d8:38:3c:41:f9:2d:fd:c9:6f:e5:b2:
         66:7e:ce:51:11:92:a5:e3:9d:7e:1a:bb:14:e7:39:5d:6b:1a:
         1f:36:2b:7e:78:b8:fa:4c:43:52:ce:48:8b:0f:b7:5d:ca:f9:
         0e:8c:24:5b:0e:a2:37:9e:e5:42:58:da:0b:ef:7e:e3:7b:27:
         86:9b:99:21:7f:12:53:57:6a:0b:fb:26:ef:36:e6:04:22:2a:
         b7:ce:e8:af:6f:5f:e0:5e:e9:59:0f:30:d5:11:b1:b5:c6:80:
         87:51:81:2d:84:7c:d7:c6:9c:a4:2f:e9:e0:cf:8d:3d:ea:82:
         f1:5d:fb:56
-----BEGIN CERTIFICATE-----
MIID+jCCAuKgAwIBAgICEAswDQYJKoZIhvcNAQEFBQAwKDESMBAGA1UEChMJTm9k
ZU9QQ1VBMRIwEAYDVQQDEwlOb2RlT1BDVUEwHhcNMTYwMTI2MTUxNjQ3WhcNMTcw
MTI1MTUxNjQ3WjAoMRIwEAYDVQQKEwlOb2RlT1BDVUExEjAQBgNVBAMTCU5vZGVP
UENVQTCCASIwDQYJKoZIhvcNAQEBBQADggEPADCCAQoCggEBANcXukjtWRCmKIxl
bBGlL4wXD1DdECmUCdf6n48WqEtAny+aVisoJLlQR1jcxUxGEfNOZlBJu+m5x4Ct
BSZv1JJh6zHShYKyCZhLeTwD77X8jZkH/bZuMfZXUqh5kG+OF1rS65XuPPu5lN3u
SNgsEg6kSX/sDxR6ztbOh0lZgFDra7AA3v2k6yPaTz6Kpx/y+2t41g1S6xu+jBvg
ZaDm8REtCiPrFb3AV4NkvrMTLK/JUN3viTq/3xeXg6egoLEex0ofpbRTJM7wkgtU
pk8ESZ+wKjJWzxqGmugV3Iwwe+aGRPqLIM5/CfcZa95IPoN0hQQBtyU24QACA5+0
M3nKRNECAwEAAaOCASwwggEoMAwGA1UdEwEB/wQCMAAwHQYDVR0OBBYEFDtAe27U
OWeRr8Y5z7SJUSMi3I6hMFEGA1UdIwRKMEiAFDtAe27UOWeRr8Y5z7SJUSMi3I6h
oSykKjAoMRIwEAYDVQQKEwlOb2RlT1BDVUExEjAQBgNVBAMTCU5vZGVPUENVQYIC
EAswRgYDVR0RBD8wPYYmdXJuOm1hcmtvLUhQOk5vZGVPUENVQS1EaXNjb3ZlcnlT
ZXJ2ZXKCCWxvY2FsaG9zdIIIbWFya28tSFAwLAYJYIZIAYb4QgENBB8WHU9wZW5T
U0wgR2VuZXJhdGVkIENlcnRpZmljYXRlMA4GA1UdDwEB/wQEAwIC/DAgBgNVHSUB
Af8EFjAUBggrBgEFBQcDAQYIKwYBBQUHAwIwDQYJKoZIhvcNAQEFBQADggEBAKn/
JwirHerQvOco6u0EE1TutOdV1AHijherCmHm8qXXqrTnxHfRITl9/PVtj7S0+/ob
roxDS2sAS2uAO5XAscjitQYQHQ19UTWgdixGn3LLsLDVNRfSuepGWZGVuO1FgSiQ
sLbKAxunc8uMxmBH/MOHNW3184OO4APRSSWVd8gg9J4b5BXYODxB+S39yW/lsmZ+
zlERkqXjnX4auxTnOV1rGh82K354uPpMQ1LOSIsPt13K+Q6MJFsOojee5UJY2gvv
fuN7J4abmSF/ElNXagv7Ju825gQiKrfO6K9vX+Be6VkPMNURsbXGgIdRgS2EfNfG
nKQv6eDPjT3qgvFd+1Y=
-----END CERTIFICATE-----
