Certificate Request:
    Data:
        Version: 0 (0x0)
        Subject: C=FR, ST=IDF, L=Paris, O=Fake CA for Test, CN=NodeOPCUA
        Subject Public Key Info:
            Public Key Algorithm: rsaEncryption
                Public-Key: (2048 bit)
                Modulus:
                    00:d3:02:63:f6:f2:d8:b0:68:a0:37:96:03:7e:c1:
                    0e:5d:ee:34:9e:45:dc:fa:24:03:42:29:db:7f:0f:
                    93:d6:4b:00:be:9a:2a:eb:68:42:35:a2:bd:9f:84:
                    20:fe:8c:32:f5:18:d9:53:11:07:d3:5d:94:42:54:
                    7f:c4:24:86:14:6d:a0:46:2b:30:9a:90:27:28:35:
                    65:11:17:07:ef:bf:09:c3:43:1b:33:ca:8b:45:a1:
                    fa:f7:45:17:4e:6a:f7:7e:8c:8f:54:1c:48:3e:3a:
                    d1:cb:67:f9:f5:52:4f:87:36:a2:cd:34:01:f1:be:
                    30:4e:70:bf:7d:9d:65:67:81:52:eb:44:f3:b5:cb:
                    b9:ea:f9:d4:21:2e:63:15:d1:e6:ce:6c:17:4f:e0:
                    01:55:a3:6b:7c:a1:f1:fc:0c:19:8b:b1:b2:f8:d8:
                    0a:c1:08:a3:d3:a7:2e:e6:96:00:3e:58:6e:5d:ec:
                    4d:99:62:19:33:77:8d:ff:1d:d6:7d:28:5c:f2:91:
                    4c:bc:79:12:84:de:0d:11:02:e1:0e:38:b5:d3:7e:
                    61:82:1e:a6:67:45:f9:2c:dc:50:88:f3:c6:f4:54:
                    4b:6f:b7:ab:90:f1:96:17:68:e6:84:3e:e4:f5:0c:
                    f5:96:88:ee:25:e4:ea:4a:d3:06:98:0f:78:ec:a7:
                    cc:af
                Exponent: 65537 (0x10001)
        Attributes:
        Requested Extensions:
            X509v3 Basic Constraints: critical
                CA:FALSE
            X509v3 Key Usage: 
                Digital Signature, Non Repudiation, Key Encipherment, Data Encipherment, Key Agreement
            X509v3 Subject Alternative Name: 
                URI:, DNS:, DNS:
            Netscape Comment: 
                CA Generated by Node-OPCUA Certificate utility using openssl
    Signature Algorithm: sha256WithRSAEncryption
         ca:69:67:c9:5a:e1:b4:1e:20:24:e8:a3:65:bc:4a:fe:d7:00:
         de:cb:f4:35:c1:d4:86:2a:b8:9b:64:a6:63:24:d6:7c:3d:55:
         23:32:d1:a1:e4:1d:df:ec:9d:c1:c4:62:61:0b:da:90:34:66:
         ef:e0:9b:39:78:d9:ff:f2:ef:e2:c8:12:78:61:ea:a8:b4:54:
         20:4c:d7:54:2e:46:88:08:ff:55:d3:03:f1:c3:d8:90:9f:fb:
         64:20:11:c2:c9:82:61:ce:1e:81:5b:4f:94:3c:a8:45:38:d2:
         82:a2:c7:7d:51:c5:9a:af:e8:d9:7b:b9:2a:41:51:6e:df:3f:
         0d:10:f5:a8:ce:7e:2c:b5:15:a2:89:5e:97:f3:af:7a:ce:90:
         ca:d4:d9:d3:87:6e:1f:fc:d5:c6:fc:cc:b4:1f:ab:bd:4f:06:
         a7:96:85:88:0a:15:02:1d:0c:ce:9a:47:47:6a:b1:0f:36:61:
         45:a9:71:26:fa:79:9e:f6:77:47:2a:1e:f7:37:36:8c:33:f6:
         e6:df:d1:1c:cb:58:6e:f9:3c:d8:3f:10:f1:c2:9e:f1:bb:6c:
         9b:19:58:a2:e3:7f:7c:b5:f8:3f:78:ff:89:44:34:f8:c6:3f:
         58:d3:f9:32:c3:e9:5e:7a:d3:3f:a8:37:83:ed:81:e6:f5:c4:
         b3:7d:63:66
-----BEGIN CERTIFICATE REQUEST-----
MIIDKzCCAhMCAQAwWjELMAkGA1UEBhMCRlIxDDAKBgNVBAgTA0lERjEOMAwGA1UE
BxMFUGFyaXMxGTAXBgNVBAoTEEZha2UgQ0EgZm9yIFRlc3QxEjAQBgNVBAMTCU5v
ZGVPUENVQTCCASIwDQYJKoZIhvcNAQEBBQADggEPADCCAQoCggEBANMCY/by2LBo
oDeWA37BDl3uNJ5F3PokA0Ip238Pk9ZLAL6aKutoQjWivZ+EIP6MMvUY2VMRB9Nd
lEJUf8QkhhRtoEYrMJqQJyg1ZREXB++/CcNDGzPKi0Wh+vdFF05q936Mj1QcSD46
0ctn+fVST4c2os00AfG+ME5wv32dZWeBUutE87XLuer51CEuYxXR5s5sF0/gAVWj
a3yh8fwMGYuxsvjYCsEIo9OnLuaWAD5Ybl3sTZliGTN3jf8d1n0oXPKRTLx5EoTe
DREC4Q44tdN+YYIepmdF+SzcUIjzxvRUS2+3q5Dxlhdo5oQ+5PUM9ZaI7iXk6krT
BpgPeOynzK8CAwEAAaCBizCBiAYJKoZIhvcNAQkOMXsweTAMBgNVHRMBAf8EAjAA
MAsGA1UdDwQEAwID+DAPBgNVHREECDAGhgCCAIIAMEsGCWCGSAGG+EIBDQQ+FjxD
QSBHZW5lcmF0ZWQgYnkgTm9kZS1PUENVQSBDZXJ0aWZpY2F0ZSB1dGlsaXR5IHVz
aW5nIG9wZW5zc2wwDQYJKoZIhvcNAQELBQADggEBAMppZ8la4bQeICToo2W8Sv7X
AN7L9DXB1IYquJtkpmMk1nw9VSMy0aHkHd/sncHEYmEL2pA0Zu/gmzl42f/y7+LI
Enhh6qi0VCBM11QuRogI/1XTA/HD2JCf+2QgEcLJgmHOHoFbT5Q8qEU40oKix31R
xZqv6Nl7uSpBUW7fPw0Q9ajOfiy1FaKJXpfzr3rOkMrU2dOHbh/81cb8zLQfq71P
BqeWhYgKFQIdDM6aR0dqsQ82YUWpcSb6eZ72d0cqHvc3Nowz9ubf0RzLWG75PNg/
EPHCnvG7bJsZWKLjf3y1+D94/4lENPjGP1jT+TLD6V560z+oN4Ptgeb1xLN9Y2Y=
-----END CERTIFICATE REQUEST-----
